
AVRASM ver. 2.1.30  C:\Documents and Settings\User\Desktop\!my\New_Plate_OLED_1\Debug\List\test2.asm Sun Jan 01 02:20:07 1989

C:\Documents and Settings\User\Desktop\!my\New_Plate_OLED_1\Debug\List\test2.asm(1086): warning: Register r5 already defined by the .DEF directive
C:\Documents and Settings\User\Desktop\!my\New_Plate_OLED_1\Debug\List\test2.asm(1087): warning: Register r4 already defined by the .DEF directive
C:\Documents and Settings\User\Desktop\!my\New_Plate_OLED_1\Debug\List\test2.asm(1088): warning: Register r6 already defined by the .DEF directive
C:\Documents and Settings\User\Desktop\!my\New_Plate_OLED_1\Debug\List\test2.asm(1089): warning: Register r7 already defined by the .DEF directive
C:\Documents and Settings\User\Desktop\!my\New_Plate_OLED_1\Debug\List\test2.asm(1090): warning: Register r8 already defined by the .DEF directive
C:\Documents and Settings\User\Desktop\!my\New_Plate_OLED_1\Debug\List\test2.asm(1091): warning: Register r9 already defined by the .DEF directive
C:\Documents and Settings\User\Desktop\!my\New_Plate_OLED_1\Debug\List\test2.asm(1092): warning: Register r10 already defined by the .DEF directive
C:\Documents and Settings\User\Desktop\!my\New_Plate_OLED_1\Debug\List\test2.asm(1093): warning: Register r11 already defined by the .DEF directive
                 
                 
                 ;CodeVisionAVR C Compiler V3.12 Advanced
                 ;(C) Copyright 1998-2014 Pavel Haiduc, HP InfoTech s.r.l.
                 ;http://www.hpinfotech.com
                 
                 ;Build configuration    : Debug
                 ;Chip type              : ATmega8
                 ;Program type           : Application
                 ;Clock frequency        : 2,000000 MHz
                 ;Memory model           : Small
                 ;Optimize for           : Size
                 ;(s)printf features     : long, width, precision
                 ;(s)scanf features      : int, width
                 ;External RAM size      : 0
                 ;Data Stack size        : 256 byte(s)
                 ;Heap size              : 0 byte(s)
                 ;Promote 'char' to 'int': Yes
                 ;'char' is unsigned     : Yes
                 ;8 bit enums            : Yes
                 ;Global 'const' stored in FLASH: Yes
                 ;Enhanced function parameter passing: Yes
                 ;Enhanced core instructions: On
                 ;Automatic register allocation for global variables: On
                 ;Smart register allocation: On
                 
                 	#define _MODEL_SMALL_
                 
                 	#pragma AVRPART ADMIN PART_NAME ATmega8
                 	#pragma AVRPART MEMORY PROG_FLASH 8192
                 	#pragma AVRPART MEMORY EEPROM 512
                 	#pragma AVRPART MEMORY INT_SRAM SIZE 1024
                 	#pragma AVRPART MEMORY INT_SRAM START_ADDR 0x60
                 
                 	.LISTMAC
                 	.EQU UDRE=0x5
                 	.EQU RXC=0x7
                 	.EQU USR=0xB
                 	.EQU UDR=0xC
                 	.EQU SPSR=0xE
                 	.EQU SPDR=0xF
                 	.EQU EERE=0x0
                 	.EQU EEWE=0x1
                 	.EQU EEMWE=0x2
                 	.EQU EECR=0x1C
                 	.EQU EEDR=0x1D
                 	.EQU EEARL=0x1E
                 	.EQU EEARH=0x1F
                 	.EQU WDTCR=0x21
                 	.EQU MCUCR=0x35
                 	.EQU GICR=0x3B
                 	.EQU SPL=0x3D
                 	.EQU SPH=0x3E
                 	.EQU SREG=0x3F
                 
                 	.DEF R0X0=R0
                 	.DEF R0X1=R1
                 	.DEF R0X2=R2
                 	.DEF R0X3=R3
                 	.DEF R0X4=R4
                 	.DEF R0X5=R5
                 	.DEF R0X6=R6
                 	.DEF R0X7=R7
                 	.DEF R0X8=R8
                 	.DEF R0X9=R9
                 	.DEF R0XA=R10
                 	.DEF R0XB=R11
                 	.DEF R0XC=R12
                 	.DEF R0XD=R13
                 	.DEF R0XE=R14
                 	.DEF R0XF=R15
                 	.DEF R0X10=R16
                 	.DEF R0X11=R17
                 	.DEF R0X12=R18
                 	.DEF R0X13=R19
                 	.DEF R0X14=R20
                 	.DEF R0X15=R21
                 	.DEF R0X16=R22
                 	.DEF R0X17=R23
                 	.DEF R0X18=R24
                 	.DEF R0X19=R25
                 	.DEF R0X1A=R26
                 	.DEF R0X1B=R27
                 	.DEF R0X1C=R28
                 	.DEF R0X1D=R29
                 	.DEF R0X1E=R30
                 	.DEF R0X1F=R31
                 
                 	.EQU __SRAM_START=0x0060
                 	.EQU __SRAM_END=0x045F
                 	.EQU __DSTACK_SIZE=0x0100
                 	.EQU __HEAP_SIZE=0x0000
                 	.EQU __CLEAR_SRAM_SIZE=__SRAM_END-__SRAM_START+1
                 
                 	.MACRO __CPD1N
                 	CPI  R30,LOW(@0)
                 	LDI  R26,HIGH(@0)
                 	CPC  R31,R26
                 	LDI  R26,BYTE3(@0)
                 	CPC  R22,R26
                 	LDI  R26,BYTE4(@0)
                 	CPC  R23,R26
                 	.ENDM
                 
                 	.MACRO __CPD2N
                 	CPI  R26,LOW(@0)
                 	LDI  R30,HIGH(@0)
                 	CPC  R27,R30
                 	LDI  R30,BYTE3(@0)
                 	CPC  R24,R30
                 	LDI  R30,BYTE4(@0)
                 	CPC  R25,R30
                 	.ENDM
                 
                 	.MACRO __CPWRR
                 	CP   R@0,R@2
                 	CPC  R@1,R@3
                 	.ENDM
                 
                 	.MACRO __CPWRN
                 	CPI  R@0,LOW(@2)
                 	LDI  R30,HIGH(@2)
                 	CPC  R@1,R30
                 	.ENDM
                 
                 	.MACRO __ADDB1MN
                 	SUBI R30,LOW(-@0-(@1))
                 	.ENDM
                 
                 	.MACRO __ADDB2MN
                 	SUBI R26,LOW(-@0-(@1))
                 	.ENDM
                 
                 	.MACRO __ADDW1MN
                 	SUBI R30,LOW(-@0-(@1))
                 	SBCI R31,HIGH(-@0-(@1))
                 	.ENDM
                 
                 	.MACRO __ADDW2MN
                 	SUBI R26,LOW(-@0-(@1))
                 	SBCI R27,HIGH(-@0-(@1))
                 	.ENDM
                 
                 	.MACRO __ADDW1FN
                 	SUBI R30,LOW(-2*@0-(@1))
                 	SBCI R31,HIGH(-2*@0-(@1))
                 	.ENDM
                 
                 	.MACRO __ADDD1FN
                 	SUBI R30,LOW(-2*@0-(@1))
                 	SBCI R31,HIGH(-2*@0-(@1))
                 	SBCI R22,BYTE3(-2*@0-(@1))
                 	.ENDM
                 
                 	.MACRO __ADDD1N
                 	SUBI R30,LOW(-@0)
                 	SBCI R31,HIGH(-@0)
                 	SBCI R22,BYTE3(-@0)
                 	SBCI R23,BYTE4(-@0)
                 	.ENDM
                 
                 	.MACRO __ADDD2N
                 	SUBI R26,LOW(-@0)
                 	SBCI R27,HIGH(-@0)
                 	SBCI R24,BYTE3(-@0)
                 	SBCI R25,BYTE4(-@0)
                 	.ENDM
                 
                 	.MACRO __SUBD1N
                 	SUBI R30,LOW(@0)
                 	SBCI R31,HIGH(@0)
                 	SBCI R22,BYTE3(@0)
                 	SBCI R23,BYTE4(@0)
                 	.ENDM
                 
                 	.MACRO __SUBD2N
                 	SUBI R26,LOW(@0)
                 	SBCI R27,HIGH(@0)
                 	SBCI R24,BYTE3(@0)
                 	SBCI R25,BYTE4(@0)
                 	.ENDM
                 
                 	.MACRO __ANDBMNN
                 	LDS  R30,@0+(@1)
                 	ANDI R30,LOW(@2)
                 	STS  @0+(@1),R30
                 	.ENDM
                 
                 	.MACRO __ANDWMNN
                 	LDS  R30,@0+(@1)
                 	ANDI R30,LOW(@2)
                 	STS  @0+(@1),R30
                 	LDS  R30,@0+(@1)+1
                 	ANDI R30,HIGH(@2)
                 	STS  @0+(@1)+1,R30
                 	.ENDM
                 
                 	.MACRO __ANDD1N
                 	ANDI R30,LOW(@0)
                 	ANDI R31,HIGH(@0)
                 	ANDI R22,BYTE3(@0)
                 	ANDI R23,BYTE4(@0)
                 	.ENDM
                 
                 	.MACRO __ANDD2N
                 	ANDI R26,LOW(@0)
                 	ANDI R27,HIGH(@0)
                 	ANDI R24,BYTE3(@0)
                 	ANDI R25,BYTE4(@0)
                 	.ENDM
                 
                 	.MACRO __ORBMNN
                 	LDS  R30,@0+(@1)
                 	ORI  R30,LOW(@2)
                 	STS  @0+(@1),R30
                 	.ENDM
                 
                 	.MACRO __ORWMNN
                 	LDS  R30,@0+(@1)
                 	ORI  R30,LOW(@2)
                 	STS  @0+(@1),R30
                 	LDS  R30,@0+(@1)+1
                 	ORI  R30,HIGH(@2)
                 	STS  @0+(@1)+1,R30
                 	.ENDM
                 
                 	.MACRO __ORD1N
                 	ORI  R30,LOW(@0)
                 	ORI  R31,HIGH(@0)
                 	ORI  R22,BYTE3(@0)
                 	ORI  R23,BYTE4(@0)
                 	.ENDM
                 
                 	.MACRO __ORD2N
                 	ORI  R26,LOW(@0)
                 	ORI  R27,HIGH(@0)
                 	ORI  R24,BYTE3(@0)
                 	ORI  R25,BYTE4(@0)
                 	.ENDM
                 
                 	.MACRO __DELAY_USB
                 	LDI  R24,LOW(@0)
                 __DELAY_USB_LOOP:
                 	DEC  R24
                 	BRNE __DELAY_USB_LOOP
                 	.ENDM
                 
                 	.MACRO __DELAY_USW
                 	LDI  R24,LOW(@0)
                 	LDI  R25,HIGH(@0)
                 __DELAY_USW_LOOP:
                 	SBIW R24,1
                 	BRNE __DELAY_USW_LOOP
                 	.ENDM
                 
                 	.MACRO __GETD1S
                 	LDD  R30,Y+@0
                 	LDD  R31,Y+@0+1
                 	LDD  R22,Y+@0+2
                 	LDD  R23,Y+@0+3
                 	.ENDM
                 
                 	.MACRO __GETD2S
                 	LDD  R26,Y+@0
                 	LDD  R27,Y+@0+1
                 	LDD  R24,Y+@0+2
                 	LDD  R25,Y+@0+3
                 	.ENDM
                 
                 	.MACRO __PUTD1S
                 	STD  Y+@0,R30
                 	STD  Y+@0+1,R31
                 	STD  Y+@0+2,R22
                 	STD  Y+@0+3,R23
                 	.ENDM
                 
                 	.MACRO __PUTD2S
                 	STD  Y+@0,R26
                 	STD  Y+@0+1,R27
                 	STD  Y+@0+2,R24
                 	STD  Y+@0+3,R25
                 	.ENDM
                 
                 	.MACRO __PUTDZ2
                 	STD  Z+@0,R26
                 	STD  Z+@0+1,R27
                 	STD  Z+@0+2,R24
                 	STD  Z+@0+3,R25
                 	.ENDM
                 
                 	.MACRO __CLRD1S
                 	STD  Y+@0,R30
                 	STD  Y+@0+1,R30
                 	STD  Y+@0+2,R30
                 	STD  Y+@0+3,R30
                 	.ENDM
                 
                 	.MACRO __POINTB1MN
                 	LDI  R30,LOW(@0+(@1))
                 	.ENDM
                 
                 	.MACRO __POINTW1MN
                 	LDI  R30,LOW(@0+(@1))
                 	LDI  R31,HIGH(@0+(@1))
                 	.ENDM
                 
                 	.MACRO __POINTD1M
                 	LDI  R30,LOW(@0)
                 	LDI  R31,HIGH(@0)
                 	LDI  R22,BYTE3(@0)
                 	LDI  R23,BYTE4(@0)
                 	.ENDM
                 
                 	.MACRO __POINTW1FN
                 	LDI  R30,LOW(2*@0+(@1))
                 	LDI  R31,HIGH(2*@0+(@1))
                 	.ENDM
                 
                 	.MACRO __POINTD1FN
                 	LDI  R30,LOW(2*@0+(@1))
                 	LDI  R31,HIGH(2*@0+(@1))
                 	LDI  R22,BYTE3(2*@0+(@1))
                 	LDI  R23,BYTE4(2*@0+(@1))
                 	.ENDM
                 
                 	.MACRO __POINTB2MN
                 	LDI  R26,LOW(@0+(@1))
                 	.ENDM
                 
                 	.MACRO __POINTW2MN
                 	LDI  R26,LOW(@0+(@1))
                 	LDI  R27,HIGH(@0+(@1))
                 	.ENDM
                 
                 	.MACRO __POINTW2FN
                 	LDI  R26,LOW(2*@0+(@1))
                 	LDI  R27,HIGH(2*@0+(@1))
                 	.ENDM
                 
                 	.MACRO __POINTD2FN
                 	LDI  R26,LOW(2*@0+(@1))
                 	LDI  R27,HIGH(2*@0+(@1))
                 	LDI  R24,BYTE3(2*@0+(@1))
                 	LDI  R25,BYTE4(2*@0+(@1))
                 	.ENDM
                 
                 	.MACRO __POINTBRM
                 	LDI  R@0,LOW(@1)
                 	.ENDM
                 
                 	.MACRO __POINTWRM
                 	LDI  R@0,LOW(@2)
                 	LDI  R@1,HIGH(@2)
                 	.ENDM
                 
                 	.MACRO __POINTBRMN
                 	LDI  R@0,LOW(@1+(@2))
                 	.ENDM
                 
                 	.MACRO __POINTWRMN
                 	LDI  R@0,LOW(@2+(@3))
                 	LDI  R@1,HIGH(@2+(@3))
                 	.ENDM
                 
                 	.MACRO __POINTWRFN
                 	LDI  R@0,LOW(@2*2+(@3))
                 	LDI  R@1,HIGH(@2*2+(@3))
                 	.ENDM
                 
                 	.MACRO __GETD1N
                 	LDI  R30,LOW(@0)
                 	LDI  R31,HIGH(@0)
                 	LDI  R22,BYTE3(@0)
                 	LDI  R23,BYTE4(@0)
                 	.ENDM
                 
                 	.MACRO __GETD2N
                 	LDI  R26,LOW(@0)
                 	LDI  R27,HIGH(@0)
                 	LDI  R24,BYTE3(@0)
                 	LDI  R25,BYTE4(@0)
                 	.ENDM
                 
                 	.MACRO __GETB1MN
                 	LDS  R30,@0+(@1)
                 	.ENDM
                 
                 	.MACRO __GETB1HMN
                 	LDS  R31,@0+(@1)
                 	.ENDM
                 
                 	.MACRO __GETW1MN
                 	LDS  R30,@0+(@1)
                 	LDS  R31,@0+(@1)+1
                 	.ENDM
                 
                 	.MACRO __GETD1MN
                 	LDS  R30,@0+(@1)
                 	LDS  R31,@0+(@1)+1
                 	LDS  R22,@0+(@1)+2
                 	LDS  R23,@0+(@1)+3
                 	.ENDM
                 
                 	.MACRO __GETBRMN
                 	LDS  R@0,@1+(@2)
                 	.ENDM
                 
                 	.MACRO __GETWRMN
                 	LDS  R@0,@2+(@3)
                 	LDS  R@1,@2+(@3)+1
                 	.ENDM
                 
                 	.MACRO __GETWRZ
                 	LDD  R@0,Z+@2
                 	LDD  R@1,Z+@2+1
                 	.ENDM
                 
                 	.MACRO __GETD2Z
                 	LDD  R26,Z+@0
                 	LDD  R27,Z+@0+1
                 	LDD  R24,Z+@0+2
                 	LDD  R25,Z+@0+3
                 	.ENDM
                 
                 	.MACRO __GETB2MN
                 	LDS  R26,@0+(@1)
                 	.ENDM
                 
                 	.MACRO __GETW2MN
                 	LDS  R26,@0+(@1)
                 	LDS  R27,@0+(@1)+1
                 	.ENDM
                 
                 	.MACRO __GETD2MN
                 	LDS  R26,@0+(@1)
                 	LDS  R27,@0+(@1)+1
                 	LDS  R24,@0+(@1)+2
                 	LDS  R25,@0+(@1)+3
                 	.ENDM
                 
                 	.MACRO __PUTB1MN
                 	STS  @0+(@1),R30
                 	.ENDM
                 
                 	.MACRO __PUTW1MN
                 	STS  @0+(@1),R30
                 	STS  @0+(@1)+1,R31
                 	.ENDM
                 
                 	.MACRO __PUTD1MN
                 	STS  @0+(@1),R30
                 	STS  @0+(@1)+1,R31
                 	STS  @0+(@1)+2,R22
                 	STS  @0+(@1)+3,R23
                 	.ENDM
                 
                 	.MACRO __PUTB1EN
                 	LDI  R26,LOW(@0+(@1))
                 	LDI  R27,HIGH(@0+(@1))
                 	RCALL __EEPROMWRB
                 	.ENDM
                 
                 	.MACRO __PUTW1EN
                 	LDI  R26,LOW(@0+(@1))
                 	LDI  R27,HIGH(@0+(@1))
                 	RCALL __EEPROMWRW
                 	.ENDM
                 
                 	.MACRO __PUTD1EN
                 	LDI  R26,LOW(@0+(@1))
                 	LDI  R27,HIGH(@0+(@1))
                 	RCALL __EEPROMWRD
                 	.ENDM
                 
                 	.MACRO __PUTBR0MN
                 	STS  @0+(@1),R0
                 	.ENDM
                 
                 	.MACRO __PUTBMRN
                 	STS  @0+(@1),R@2
                 	.ENDM
                 
                 	.MACRO __PUTWMRN
                 	STS  @0+(@1),R@2
                 	STS  @0+(@1)+1,R@3
                 	.ENDM
                 
                 	.MACRO __PUTBZR
                 	STD  Z+@1,R@0
                 	.ENDM
                 
                 	.MACRO __PUTWZR
                 	STD  Z+@2,R@0
                 	STD  Z+@2+1,R@1
                 	.ENDM
                 
                 	.MACRO __GETW1R
                 	MOV  R30,R@0
                 	MOV  R31,R@1
                 	.ENDM
                 
                 	.MACRO __GETW2R
                 	MOV  R26,R@0
                 	MOV  R27,R@1
                 	.ENDM
                 
                 	.MACRO __GETWRN
                 	LDI  R@0,LOW(@2)
                 	LDI  R@1,HIGH(@2)
                 	.ENDM
                 
                 	.MACRO __PUTW1R
                 	MOV  R@0,R30
                 	MOV  R@1,R31
                 	.ENDM
                 
                 	.MACRO __PUTW2R
                 	MOV  R@0,R26
                 	MOV  R@1,R27
                 	.ENDM
                 
                 	.MACRO __ADDWRN
                 	SUBI R@0,LOW(-@2)
                 	SBCI R@1,HIGH(-@2)
                 	.ENDM
                 
                 	.MACRO __ADDWRR
                 	ADD  R@0,R@2
                 	ADC  R@1,R@3
                 	.ENDM
                 
                 	.MACRO __SUBWRN
                 	SUBI R@0,LOW(@2)
                 	SBCI R@1,HIGH(@2)
                 	.ENDM
                 
                 	.MACRO __SUBWRR
                 	SUB  R@0,R@2
                 	SBC  R@1,R@3
                 	.ENDM
                 
                 	.MACRO __ANDWRN
                 	ANDI R@0,LOW(@2)
                 	ANDI R@1,HIGH(@2)
                 	.ENDM
                 
                 	.MACRO __ANDWRR
                 	AND  R@0,R@2
                 	AND  R@1,R@3
                 	.ENDM
                 
                 	.MACRO __ORWRN
                 	ORI  R@0,LOW(@2)
                 	ORI  R@1,HIGH(@2)
                 	.ENDM
                 
                 	.MACRO __ORWRR
                 	OR   R@0,R@2
                 	OR   R@1,R@3
                 	.ENDM
                 
                 	.MACRO __EORWRR
                 	EOR  R@0,R@2
                 	EOR  R@1,R@3
                 	.ENDM
                 
                 	.MACRO __GETWRS
                 	LDD  R@0,Y+@2
                 	LDD  R@1,Y+@2+1
                 	.ENDM
                 
                 	.MACRO __PUTBSR
                 	STD  Y+@1,R@0
                 	.ENDM
                 
                 	.MACRO __PUTWSR
                 	STD  Y+@2,R@0
                 	STD  Y+@2+1,R@1
                 	.ENDM
                 
                 	.MACRO __MOVEWRR
                 	MOV  R@0,R@2
                 	MOV  R@1,R@3
                 	.ENDM
                 
                 	.MACRO __INWR
                 	IN   R@0,@2
                 	IN   R@1,@2+1
                 	.ENDM
                 
                 	.MACRO __OUTWR
                 	OUT  @2+1,R@1
                 	OUT  @2,R@0
                 	.ENDM
                 
                 	.MACRO __CALL1MN
                 	LDS  R30,@0+(@1)
                 	LDS  R31,@0+(@1)+1
                 	ICALL
                 	.ENDM
                 
                 	.MACRO __CALL1FN
                 	LDI  R30,LOW(2*@0+(@1))
                 	LDI  R31,HIGH(2*@0+(@1))
                 	RCALL __GETW1PF
                 	ICALL
                 	.ENDM
                 
                 	.MACRO __CALL2EN
                 	PUSH R26
                 	PUSH R27
                 	LDI  R26,LOW(@0+(@1))
                 	LDI  R27,HIGH(@0+(@1))
                 	RCALL __EEPROMRDW
                 	POP  R27
                 	POP  R26
                 	ICALL
                 	.ENDM
                 
                 	.MACRO __CALL2EX
                 	SUBI R26,LOW(-@0)
                 	SBCI R27,HIGH(-@0)
                 	RCALL __EEPROMRDD
                 	ICALL
                 	.ENDM
                 
                 	.MACRO __GETW1STACK
                 	IN   R30,SPL
                 	IN   R31,SPH
                 	ADIW R30,@0+1
                 	LD   R0,Z+
                 	LD   R31,Z
                 	MOV  R30,R0
                 	.ENDM
                 
                 	.MACRO __GETD1STACK
                 	IN   R30,SPL
                 	IN   R31,SPH
                 	ADIW R30,@0+1
                 	LD   R0,Z+
                 	LD   R1,Z+
                 	LD   R22,Z
                 	MOVW R30,R0
                 	.ENDM
                 
                 	.MACRO __NBST
                 	BST  R@0,@1
                 	IN   R30,SREG
                 	LDI  R31,0x40
                 	EOR  R30,R31
                 	OUT  SREG,R30
                 	.ENDM
                 
                 
                 	.MACRO __PUTB1SN
                 	LDD  R26,Y+@0
                 	LDD  R27,Y+@0+1
                 	SUBI R26,LOW(-@1)
                 	SBCI R27,HIGH(-@1)
                 	ST   X,R30
                 	.ENDM
                 
                 	.MACRO __PUTW1SN
                 	LDD  R26,Y+@0
                 	LDD  R27,Y+@0+1
                 	SUBI R26,LOW(-@1)
                 	SBCI R27,HIGH(-@1)
                 	ST   X+,R30
                 	ST   X,R31
                 	.ENDM
                 
                 	.MACRO __PUTD1SN
                 	LDD  R26,Y+@0
                 	LDD  R27,Y+@0+1
                 	SUBI R26,LOW(-@1)
                 	SBCI R27,HIGH(-@1)
                 	RCALL __PUTDP1
                 	.ENDM
                 
                 	.MACRO __PUTB1SNS
                 	LDD  R26,Y+@0
                 	LDD  R27,Y+@0+1
                 	ADIW R26,@1
                 	ST   X,R30
                 	.ENDM
                 
                 	.MACRO __PUTW1SNS
                 	LDD  R26,Y+@0
                 	LDD  R27,Y+@0+1
                 	ADIW R26,@1
                 	ST   X+,R30
                 	ST   X,R31
                 	.ENDM
                 
                 	.MACRO __PUTD1SNS
                 	LDD  R26,Y+@0
                 	LDD  R27,Y+@0+1
                 	ADIW R26,@1
                 	RCALL __PUTDP1
                 	.ENDM
                 
                 	.MACRO __PUTB1PMN
                 	LDS  R26,@0
                 	LDS  R27,@0+1
                 	SUBI R26,LOW(-@1)
                 	SBCI R27,HIGH(-@1)
                 	ST   X,R30
                 	.ENDM
                 
                 	.MACRO __PUTW1PMN
                 	LDS  R26,@0
                 	LDS  R27,@0+1
                 	SUBI R26,LOW(-@1)
                 	SBCI R27,HIGH(-@1)
                 	ST   X+,R30
                 	ST   X,R31
                 	.ENDM
                 
                 	.MACRO __PUTD1PMN
                 	LDS  R26,@0
                 	LDS  R27,@0+1
                 	SUBI R26,LOW(-@1)
                 	SBCI R27,HIGH(-@1)
                 	RCALL __PUTDP1
                 	.ENDM
                 
                 	.MACRO __PUTB1PMNS
                 	LDS  R26,@0
                 	LDS  R27,@0+1
                 	ADIW R26,@1
                 	ST   X,R30
                 	.ENDM
                 
                 	.MACRO __PUTW1PMNS
                 	LDS  R26,@0
                 	LDS  R27,@0+1
                 	ADIW R26,@1
                 	ST   X+,R30
                 	ST   X,R31
                 	.ENDM
                 
                 	.MACRO __PUTD1PMNS
                 	LDS  R26,@0
                 	LDS  R27,@0+1
                 	ADIW R26,@1
                 	RCALL __PUTDP1
                 	.ENDM
                 
                 	.MACRO __PUTB1RN
                 	MOVW R26,R@0
                 	SUBI R26,LOW(-@1)
                 	SBCI R27,HIGH(-@1)
                 	ST   X,R30
                 	.ENDM
                 
                 	.MACRO __PUTW1RN
                 	MOVW R26,R@0
                 	SUBI R26,LOW(-@1)
                 	SBCI R27,HIGH(-@1)
                 	ST   X+,R30
                 	ST   X,R31
                 	.ENDM
                 
                 	.MACRO __PUTD1RN
                 	MOVW R26,R@0
                 	SUBI R26,LOW(-@1)
                 	SBCI R27,HIGH(-@1)
                 	RCALL __PUTDP1
                 	.ENDM
                 
                 	.MACRO __PUTB1RNS
                 	MOVW R26,R@0
                 	ADIW R26,@1
                 	ST   X,R30
                 	.ENDM
                 
                 	.MACRO __PUTW1RNS
                 	MOVW R26,R@0
                 	ADIW R26,@1
                 	ST   X+,R30
                 	ST   X,R31
                 	.ENDM
                 
                 	.MACRO __PUTD1RNS
                 	MOVW R26,R@0
                 	ADIW R26,@1
                 	RCALL __PUTDP1
                 	.ENDM
                 
                 	.MACRO __PUTB1RON
                 	MOV  R26,R@0
                 	MOV  R27,R@1
                 	SUBI R26,LOW(-@2)
                 	SBCI R27,HIGH(-@2)
                 	ST   X,R30
                 	.ENDM
                 
                 	.MACRO __PUTW1RON
                 	MOV  R26,R@0
                 	MOV  R27,R@1
                 	SUBI R26,LOW(-@2)
                 	SBCI R27,HIGH(-@2)
                 	ST   X+,R30
                 	ST   X,R31
                 	.ENDM
                 
                 	.MACRO __PUTD1RON
                 	MOV  R26,R@0
                 	MOV  R27,R@1
                 	SUBI R26,LOW(-@2)
                 	SBCI R27,HIGH(-@2)
                 	RCALL __PUTDP1
                 	.ENDM
                 
                 	.MACRO __PUTB1RONS
                 	MOV  R26,R@0
                 	MOV  R27,R@1
                 	ADIW R26,@2
                 	ST   X,R30
                 	.ENDM
                 
                 	.MACRO __PUTW1RONS
                 	MOV  R26,R@0
                 	MOV  R27,R@1
                 	ADIW R26,@2
                 	ST   X+,R30
                 	ST   X,R31
                 	.ENDM
                 
                 	.MACRO __PUTD1RONS
                 	MOV  R26,R@0
                 	MOV  R27,R@1
                 	ADIW R26,@2
                 	RCALL __PUTDP1
                 	.ENDM
                 
                 
                 	.MACRO __GETB1SX
                 	MOVW R30,R28
                 	SUBI R30,LOW(-@0)
                 	SBCI R31,HIGH(-@0)
                 	LD   R30,Z
                 	.ENDM
                 
                 	.MACRO __GETB1HSX
                 	MOVW R30,R28
                 	SUBI R30,LOW(-@0)
                 	SBCI R31,HIGH(-@0)
                 	LD   R31,Z
                 	.ENDM
                 
                 	.MACRO __GETW1SX
                 	MOVW R30,R28
                 	SUBI R30,LOW(-@0)
                 	SBCI R31,HIGH(-@0)
                 	LD   R0,Z+
                 	LD   R31,Z
                 	MOV  R30,R0
                 	.ENDM
                 
                 	.MACRO __GETD1SX
                 	MOVW R30,R28
                 	SUBI R30,LOW(-@0)
                 	SBCI R31,HIGH(-@0)
                 	LD   R0,Z+
                 	LD   R1,Z+
                 	LD   R22,Z+
                 	LD   R23,Z
                 	MOVW R30,R0
                 	.ENDM
                 
                 	.MACRO __GETB2SX
                 	MOVW R26,R28
                 	SUBI R26,LOW(-@0)
                 	SBCI R27,HIGH(-@0)
                 	LD   R26,X
                 	.ENDM
                 
                 	.MACRO __GETW2SX
                 	MOVW R26,R28
                 	SUBI R26,LOW(-@0)
                 	SBCI R27,HIGH(-@0)
                 	LD   R0,X+
                 	LD   R27,X
                 	MOV  R26,R0
                 	.ENDM
                 
                 	.MACRO __GETD2SX
                 	MOVW R26,R28
                 	SUBI R26,LOW(-@0)
                 	SBCI R27,HIGH(-@0)
                 	LD   R0,X+
                 	LD   R1,X+
                 	LD   R24,X+
                 	LD   R25,X
                 	MOVW R26,R0
                 	.ENDM
                 
                 	.MACRO __GETBRSX
                 	MOVW R30,R28
                 	SUBI R30,LOW(-@1)
                 	SBCI R31,HIGH(-@1)
                 	LD   R@0,Z
                 	.ENDM
                 
                 	.MACRO __GETWRSX
                 	MOVW R30,R28
                 	SUBI R30,LOW(-@2)
                 	SBCI R31,HIGH(-@2)
                 	LD   R@0,Z+
                 	LD   R@1,Z
                 	.ENDM
                 
                 	.MACRO __GETBRSX2
                 	MOVW R26,R28
                 	SUBI R26,LOW(-@1)
                 	SBCI R27,HIGH(-@1)
                 	LD   R@0,X
                 	.ENDM
                 
                 	.MACRO __GETWRSX2
                 	MOVW R26,R28
                 	SUBI R26,LOW(-@2)
                 	SBCI R27,HIGH(-@2)
                 	LD   R@0,X+
                 	LD   R@1,X
                 	.ENDM
                 
                 	.MACRO __LSLW8SX
                 	MOVW R30,R28
                 	SUBI R30,LOW(-@0)
                 	SBCI R31,HIGH(-@0)
                 	LD   R31,Z
                 	CLR  R30
                 	.ENDM
                 
                 	.MACRO __PUTB1SX
                 	MOVW R26,R28
                 	SUBI R26,LOW(-@0)
                 	SBCI R27,HIGH(-@0)
                 	ST   X,R30
                 	.ENDM
                 
                 	.MACRO __PUTW1SX
                 	MOVW R26,R28
                 	SUBI R26,LOW(-@0)
                 	SBCI R27,HIGH(-@0)
                 	ST   X+,R30
                 	ST   X,R31
                 	.ENDM
                 
                 	.MACRO __PUTD1SX
                 	MOVW R26,R28
                 	SUBI R26,LOW(-@0)
                 	SBCI R27,HIGH(-@0)
                 	ST   X+,R30
                 	ST   X+,R31
                 	ST   X+,R22
                 	ST   X,R23
                 	.ENDM
                 
                 	.MACRO __CLRW1SX
                 	MOVW R26,R28
                 	SUBI R26,LOW(-@0)
                 	SBCI R27,HIGH(-@0)
                 	ST   X+,R30
                 	ST   X,R30
                 	.ENDM
                 
                 	.MACRO __CLRD1SX
                 	MOVW R26,R28
                 	SUBI R26,LOW(-@0)
                 	SBCI R27,HIGH(-@0)
                 	ST   X+,R30
                 	ST   X+,R30
                 	ST   X+,R30
                 	ST   X,R30
                 	.ENDM
                 
                 	.MACRO __PUTB2SX
                 	MOVW R30,R28
                 	SUBI R30,LOW(-@0)
                 	SBCI R31,HIGH(-@0)
                 	ST   Z,R26
                 	.ENDM
                 
                 	.MACRO __PUTW2SX
                 	MOVW R30,R28
                 	SUBI R30,LOW(-@0)
                 	SBCI R31,HIGH(-@0)
                 	ST   Z+,R26
                 	ST   Z,R27
                 	.ENDM
                 
                 	.MACRO __PUTD2SX
                 	MOVW R30,R28
                 	SUBI R30,LOW(-@0)
                 	SBCI R31,HIGH(-@0)
                 	ST   Z+,R26
                 	ST   Z+,R27
                 	ST   Z+,R24
                 	ST   Z,R25
                 	.ENDM
                 
                 	.MACRO __PUTBSRX
                 	MOVW R30,R28
                 	SUBI R30,LOW(-@1)
                 	SBCI R31,HIGH(-@1)
                 	ST   Z,R@0
                 	.ENDM
                 
                 	.MACRO __PUTWSRX
                 	MOVW R30,R28
                 	SUBI R30,LOW(-@2)
                 	SBCI R31,HIGH(-@2)
                 	ST   Z+,R@0
                 	ST   Z,R@1
                 	.ENDM
                 
                 	.MACRO __PUTB1SNX
                 	MOVW R26,R28
                 	SUBI R26,LOW(-@0)
                 	SBCI R27,HIGH(-@0)
                 	LD   R0,X+
                 	LD   R27,X
                 	MOV  R26,R0
                 	SUBI R26,LOW(-@1)
                 	SBCI R27,HIGH(-@1)
                 	ST   X,R30
                 	.ENDM
                 
                 	.MACRO __PUTW1SNX
                 	MOVW R26,R28
                 	SUBI R26,LOW(-@0)
                 	SBCI R27,HIGH(-@0)
                 	LD   R0,X+
                 	LD   R27,X
                 	MOV  R26,R0
                 	SUBI R26,LOW(-@1)
                 	SBCI R27,HIGH(-@1)
                 	ST   X+,R30
                 	ST   X,R31
                 	.ENDM
                 
                 	.MACRO __PUTD1SNX
                 	MOVW R26,R28
                 	SUBI R26,LOW(-@0)
                 	SBCI R27,HIGH(-@0)
                 	LD   R0,X+
                 	LD   R27,X
                 	MOV  R26,R0
                 	SUBI R26,LOW(-@1)
                 	SBCI R27,HIGH(-@1)
                 	ST   X+,R30
                 	ST   X+,R31
                 	ST   X+,R22
                 	ST   X,R23
                 	.ENDM
                 
                 	.MACRO __MULBRR
                 	MULS R@0,R@1
                 	MOVW R30,R0
                 	.ENDM
                 
                 	.MACRO __MULBRRU
                 	MUL  R@0,R@1
                 	MOVW R30,R0
                 	.ENDM
                 
                 	.MACRO __MULBRR0
                 	MULS R@0,R@1
                 	.ENDM
                 
                 	.MACRO __MULBRRU0
                 	MUL  R@0,R@1
                 	.ENDM
                 
                 	.MACRO __MULBNWRU
                 	LDI  R26,@2
                 	MUL  R26,R@0
                 	MOVW R30,R0
                 	MUL  R26,R@1
                 	ADD  R31,R0
                 	.ENDM
                 
                 ;NAME DEFINITIONS FOR GLOBAL VARIABLES ALLOCATED TO REGISTERS
                 	.DEF _LCD_X=R5
                 	.DEF _LCD_Y=R4
                 	.DEF _U_Bat_ADC=R6
                 	.DEF _U_Bat_ADC_msb=R7
                 	.DEF _T_ADC=R8
                 	.DEF _T_ADC_msb=R9
                 	.DEF _U1_ADC=R10
                 	.DEF _U1_ADC_msb=R11
                 
                 	.CSEG
                 	.ORG 0x00
                 
                 ;START OF CODE MARKER
                 __START_OF_CODE:
                 
                 ;INTERRUPT VECTORS
000000 c409      	RJMP __RESET
000001 cffe      	RJMP 0x00
000002 cffd      	RJMP 0x00
000003 cffc      	RJMP 0x00
000004 cffb      	RJMP 0x00
000005 cffa      	RJMP 0x00
000006 cff9      	RJMP 0x00
000007 cff8      	RJMP 0x00
000008 cff7      	RJMP 0x00
000009 c612      	RJMP _timer0_ovf_isr
00000a cff5      	RJMP 0x00
00000b cff4      	RJMP 0x00
00000c cff3      	RJMP 0x00
00000d cff2      	RJMP 0x00
00000e cff1      	RJMP 0x00
00000f cff0      	RJMP 0x00
000010 cfef      	RJMP 0x00
000011 cfee      	RJMP 0x00
000012 cfed      	RJMP 0x00
                 
                 _LCD_Buffer:
000013 0000
000014 0000
000015 0000
000016 5f00      	.DB  0x0,0x0,0x0,0x0,0x0,0x0,0x0,0x5F
000017 0000
000018 0700
000019 0700
00001a 1400      	.DB  0x0,0x0,0x0,0x7,0x0,0x7,0x0,0x14
00001b 147f
00001c 147f
00001d 2a24
00001e 2a7f      	.DB  0x7F,0x14,0x7F,0x14,0x24,0x2A,0x7F,0x2A
00001f 2312
000020 0813
000021 6264
000022 4936      	.DB  0x12,0x23,0x13,0x8,0x64,0x62,0x36,0x49
000023 2255
000024 0050
000025 0305
000026 0000      	.DB  0x55,0x22,0x50,0x0,0x5,0x3,0x0,0x0
000027 1c00
000028 4122
000029 0000
00002a 2241      	.DB  0x0,0x1C,0x22,0x41,0x0,0x0,0x41,0x22
00002b 001c
00002c 0814
00002d 083e
00002e 0814      	.DB  0x1C,0x0,0x14,0x8,0x3E,0x8,0x14,0x8
00002f 3e08
000030 0808
000031 5000
000032 0030      	.DB  0x8,0x3E,0x8,0x8,0x0,0x50,0x30,0x0
000033 0800
000034 0808
000035 0808
000036 6000      	.DB  0x0,0x8,0x8,0x8,0x8,0x8,0x0,0x60
000037 0060
000038 2000
000039 0810
00003a 0204      	.DB  0x60,0x0,0x0,0x20,0x10,0x8,0x4,0x2
00003b 0000
00003c 0000
00003d 0000
00003e 5f00      	.DB  0x0,0x0,0x0,0x0,0x0,0x0,0x0,0x5F
00003f 0000
000040 0700
000041 0700
000042 1400      	.DB  0x0,0x0,0x0,0x7,0x0,0x7,0x0,0x14
000043 147f
000044 147f
000045 2a24
000046 2a7f      	.DB  0x7F,0x14,0x7F,0x14,0x24,0x2A,0x7F,0x2A
000047 2312
000048 0813
000049 6264
00004a 4936      	.DB  0x12,0x23,0x13,0x8,0x64,0x62,0x36,0x49
00004b 2255
00004c 0050
00004d 0305
00004e 0000      	.DB  0x55,0x22,0x50,0x0,0x5,0x3,0x0,0x0
00004f 1c00
000050 4122
000051 0000
000052 2241      	.DB  0x0,0x1C,0x22,0x41,0x0,0x0,0x41,0x22
000053 001c
000054 0814
000055 083e
000056 0814      	.DB  0x1C,0x0,0x14,0x8,0x3E,0x8,0x14,0x8
000057 3e08
000058 0808
000059 5000
00005a 0030      	.DB  0x8,0x3E,0x8,0x8,0x0,0x50,0x30,0x0
00005b 0800
00005c 0808
00005d 0808
00005e 6000      	.DB  0x0,0x8,0x8,0x8,0x8,0x8,0x0,0x60
00005f 0060
000060 2000
000061 0810
000062 0204      	.DB  0x60,0x0,0x0,0x20,0x10,0x8,0x4,0x2
000063 0000
000064 0000
000065 0000
000066 5f00      	.DB  0x0,0x0,0x0,0x0,0x0,0x0,0x0,0x5F
000067 0000
000068 0700
000069 0700
00006a 1400      	.DB  0x0,0x0,0x0,0x7,0x0,0x7,0x0,0x14
00006b 147f
00006c 147f
00006d 2a24
00006e 2a7f      	.DB  0x7F,0x14,0x7F,0x14,0x24,0x2A,0x7F,0x2A
00006f 2312
000070 0813
000071 6264
000072 4936      	.DB  0x12,0x23,0x13,0x8,0x64,0x62,0x36,0x49
000073 2255
000074 0050
000075 0305
000076 0000      	.DB  0x55,0x22,0x50,0x0,0x5,0x3,0x0,0x0
000077 1c00
000078 4122
000079 0000
00007a 2241      	.DB  0x0,0x1C,0x22,0x41,0x0,0x0,0x41,0x22
00007b 001c
00007c 0814
00007d 083e
00007e 0814      	.DB  0x1C,0x0,0x14,0x8,0x3E,0x8,0x14,0x8
00007f 3e08
000080 0808
000081 5000
000082 0030      	.DB  0x8,0x3E,0x8,0x8,0x0,0x50,0x30,0x0
000083 0800
000084 0808
000085 0808
000086 6000      	.DB  0x0,0x8,0x8,0x8,0x8,0x8,0x0,0x60
000087 0060
000088 2000
000089 0810
00008a 0204      	.DB  0x60,0x0,0x0,0x20,0x10,0x8,0x4,0x2
00008b 513e
00008c 4549
00008d 003e
00008e 7f42      	.DB  0x3E,0x51,0x49,0x45,0x3E,0x0,0x42,0x7F
00008f 0040
000090 6142
000091 4951
000092 2146      	.DB  0x40,0x0,0x42,0x61,0x51,0x49,0x46,0x21
000093 4541
000094 314b
000095 1418
000096 7f12      	.DB  0x41,0x45,0x4B,0x31,0x18,0x14,0x12,0x7F
000097 2710
000098 4545
000099 3945
00009a 4a3c      	.DB  0x10,0x27,0x45,0x45,0x45,0x39,0x3C,0x4A
00009b 4949
00009c 0130
00009d 0971
00009e 0305      	.DB  0x49,0x49,0x30,0x1,0x71,0x9,0x5,0x3
00009f 4936
0000a0 4949
0000a1 0636
0000a2 4949      	.DB  0x36,0x49,0x49,0x49,0x36,0x6,0x49,0x49
0000a3 1e29
0000a4 3600
0000a5 0036
0000a6 0000      	.DB  0x29,0x1E,0x0,0x36,0x36,0x0,0x0,0x0
0000a7 3656
0000a8 0000
0000a9 1408
0000aa 4122      	.DB  0x56,0x36,0x0,0x0,0x8,0x14,0x22,0x41
0000ab 1400
0000ac 1414
0000ad 1414
0000ae 4100      	.DB  0x0,0x14,0x14,0x14,0x14,0x14,0x0,0x41
0000af 1422
0000b0 0208
0000b1 5101
0000b2 0609      	.DB  0x22,0x14,0x8,0x2,0x1,0x51,0x9,0x6
0000b3 4932
0000b4 4179
0000b5 7e3e
0000b6 1111      	.DB  0x32,0x49,0x79,0x41,0x3E,0x7E,0x11,0x11
0000b7 7e11
0000b8 497f
0000b9 4949
0000ba 3e36      	.DB  0x11,0x7E,0x7F,0x49,0x49,0x49,0x36,0x3E
0000bb 4141
0000bc 2241
0000bd 417f
0000be 2241      	.DB  0x41,0x41,0x41,0x22,0x7F,0x41,0x41,0x22
0000bf 7f1c
0000c0 4949
0000c1 4149
0000c2 097f      	.DB  0x1C,0x7F,0x49,0x49,0x49,0x41,0x7F,0x9
0000c3 0909
0000c4 3e01
0000c5 4941
0000c6 7a49      	.DB  0x9,0x9,0x1,0x3E,0x41,0x49,0x49,0x7A
0000c7 087f
0000c8 0808
0000c9 007f
0000ca 7f41      	.DB  0x7F,0x8,0x8,0x8,0x7F,0x0,0x41,0x7F
0000cb 0041
0000cc 4020
0000cd 3f41
0000ce 7f01      	.DB  0x41,0x0,0x20,0x40,0x41,0x3F,0x1,0x7F
0000cf 1408
0000d0 4122
0000d1 407f
0000d2 4040      	.DB  0x8,0x14,0x22,0x41,0x7F,0x40,0x40,0x40
0000d3 7f40
0000d4 0c02
0000d5 7f02
0000d6 047f      	.DB  0x40,0x7F,0x2,0xC,0x2,0x7F,0x7F,0x4
0000d7 1008
0000d8 3e7f
0000d9 4141
0000da 3e41      	.DB  0x8,0x10,0x7F,0x3E,0x41,0x41,0x41,0x3E
0000db 097f
0000dc 0909
0000dd 3e06
0000de 5141      	.DB  0x7F,0x9,0x9,0x9,0x6,0x3E,0x41,0x51
0000df 5e21
0000e0 097f
0000e1 2919
0000e2 4646      	.DB  0x21,0x5E,0x7F,0x9,0x19,0x29,0x46,0x46
0000e3 4949
0000e4 3149
0000e5 0101
0000e6 017f      	.DB  0x49,0x49,0x49,0x31,0x1,0x1,0x7F,0x1
0000e7 3f01
0000e8 4040
0000e9 3f40
0000ea 201f      	.DB  0x1,0x3F,0x40,0x40,0x40,0x3F,0x1F,0x20
0000eb 2040
0000ec 3f1f
0000ed 3840
0000ee 3f40      	.DB  0x40,0x20,0x1F,0x3F,0x40,0x38,0x40,0x3F
0000ef 1463
0000f0 1408
0000f1 0763
0000f2 7008      	.DB  0x63,0x14,0x8,0x14,0x63,0x7,0x8,0x70
0000f3 0708
0000f4 5161
0000f5 4549
0000f6 0043      	.DB  0x8,0x7,0x61,0x51,0x49,0x45,0x43,0x0
0000f7 417f
0000f8 0041
0000f9 0402
0000fa 1008      	.DB  0x7F,0x41,0x41,0x0,0x2,0x4,0x8,0x10
0000fb 0020
0000fc 4141
0000fd 007f
0000fe 0204      	.DB  0x20,0x0,0x41,0x41,0x7F,0x0,0x4,0x2
0000ff 0201
000100 4004
000101 4040
000102 4040      	.DB  0x1,0x2,0x4,0x40,0x40,0x40,0x40,0x40
000103 0100
000104 0402
000105 2000
000106 5454      	.DB  0x0,0x1,0x2,0x4,0x0,0x20,0x54,0x54
000107 7854
000108 487f
000109 4444
00010a 3838      	.DB  0x54,0x78,0x7F,0x48,0x44,0x44,0x38,0x38
00010b 4444
00010c 2044
00010d 4438
00010e 4844      	.DB  0x44,0x44,0x44,0x20,0x38,0x44,0x44,0x48
00010f 387f
000110 5454
000111 1854
000112 7e08      	.DB  0x7F,0x38,0x54,0x54,0x54,0x18,0x8,0x7E
000113 0109
000114 0c02
000115 5252
000116 3e52      	.DB  0x9,0x1,0x2,0xC,0x52,0x52,0x52,0x3E
000117 087f
000118 0404
000119 0078
00011a 7d44      	.DB  0x7F,0x8,0x4,0x4,0x78,0x0,0x44,0x7D
00011b 0040
00011c 4020
00011d 3d44
00011e 7f00      	.DB  0x40,0x0,0x20,0x40,0x44,0x3D,0x0,0x7F
00011f 2810
000120 0044
000121 4100
000122 407f      	.DB  0x10,0x28,0x44,0x0,0x0,0x41,0x7F,0x40
000123 7c00
000124 1804
000125 7804
000126 087c      	.DB  0x0,0x7C,0x4,0x18,0x4,0x78,0x7C,0x8
000127 0404
000128 3878
000129 4444
00012a 3844      	.DB  0x4,0x4,0x78,0x38,0x44,0x44,0x44,0x38
00012b 147c
00012c 1414
00012d 0808
00012e 1414      	.DB  0x7C,0x14,0x14,0x14,0x8,0x8,0x14,0x14
00012f 7c18
000130 087c
000131 0404
000132 0808      	.DB  0x18,0x7C,0x7C,0x8,0x4,0x4,0x8,0x8
000133 5454
000134 2054
000135 3f04
000136 4044      	.DB  0x54,0x54,0x54,0x20,0x4,0x3F,0x44,0x40
000137 3c20
000138 4040
000139 7c20
00013a 201c      	.DB  0x20,0x3C,0x40,0x40,0x20,0x7C,0x1C,0x20
00013b 2040
00013c 3c1c
00013d 3040
00013e 3c40      	.DB  0x40,0x20,0x1C,0x3C,0x40,0x30,0x40,0x3C
00013f 2844
000140 2810
000141 0c44
000142 5050      	.DB  0x44,0x28,0x10,0x28,0x44,0xC,0x50,0x50
000143 3c50
000144 6444
000145 4c54
000146 0044      	.DB  0x50,0x3C,0x44,0x64,0x54,0x4C,0x44,0x0
000147 3608
000148 0041
000149 0000
00014a 007f      	.DB  0x8,0x36,0x41,0x0,0x0,0x0,0x7F,0x0
00014b 0000
00014c 3641
00014d 0008
00014e 0810      	.DB  0x0,0x0,0x41,0x36,0x8,0x0,0x10,0x8
00014f 1008
000150 7808
000151 4146
000152 7846      	.DB  0x8,0x10,0x8,0x78,0x46,0x41,0x46,0x78
000153 0000
000154 0000
000155 0000
000156 5f00      	.DB  0x0,0x0,0x0,0x0,0x0,0x0,0x0,0x5F
000157 0000
000158 0700
000159 0700
00015a 1400      	.DB  0x0,0x0,0x0,0x7,0x0,0x7,0x0,0x14
00015b 147f
00015c 147f
00015d 2a24
00015e 2a7f      	.DB  0x7F,0x14,0x7F,0x14,0x24,0x2A,0x7F,0x2A
00015f 2312
000160 0813
000161 6264
000162 4936      	.DB  0x12,0x23,0x13,0x8,0x64,0x62,0x36,0x49
000163 2255
000164 0050
000165 0305
000166 0000      	.DB  0x55,0x22,0x50,0x0,0x5,0x3,0x0,0x0
000167 1c00
000168 4122
000169 0000
00016a 2241      	.DB  0x0,0x1C,0x22,0x41,0x0,0x0,0x41,0x22
00016b 001c
00016c 0814
00016d 083e
00016e 0814      	.DB  0x1C,0x0,0x14,0x8,0x3E,0x8,0x14,0x8
00016f 3e08
000170 0808
000171 5000
000172 0030      	.DB  0x8,0x3E,0x8,0x8,0x0,0x50,0x30,0x0
000173 0800
000174 0808
000175 0808
000176 6000      	.DB  0x0,0x8,0x8,0x8,0x8,0x8,0x0,0x60
000177 0060
000178 2000
000179 0810
00017a 0204      	.DB  0x60,0x0,0x0,0x20,0x10,0x8,0x4,0x2
00017b 0000
00017c 0000
00017d 0000
00017e 5f00      	.DB  0x0,0x0,0x0,0x0,0x0,0x0,0x0,0x5F
00017f 0000
000180 0700
000181 0700
000182 1400      	.DB  0x0,0x0,0x0,0x7,0x0,0x7,0x0,0x14
000183 147f
000184 147f
000185 2a24
000186 2a7f      	.DB  0x7F,0x14,0x7F,0x14,0x24,0x2A,0x7F,0x2A
000187 2312
000188 0813
000189 6264
00018a 4936      	.DB  0x12,0x23,0x13,0x8,0x64,0x62,0x36,0x49
00018b 2255
00018c 0050
00018d 0305
00018e 0000      	.DB  0x55,0x22,0x50,0x0,0x5,0x3,0x0,0x0
00018f 1c00
000190 4122
000191 0000
000192 2241      	.DB  0x0,0x1C,0x22,0x41,0x0,0x0,0x41,0x22
000193 001c
000194 0814
000195 083e
000196 0814      	.DB  0x1C,0x0,0x14,0x8,0x3E,0x8,0x14,0x8
000197 3e08
000198 0808
000199 5000
00019a 0030      	.DB  0x8,0x3E,0x8,0x8,0x0,0x50,0x30,0x0
00019b 0800
00019c 0808
00019d 0808
00019e 6000      	.DB  0x0,0x8,0x8,0x8,0x8,0x8,0x0,0x60
00019f 0060
0001a0 2000
0001a1 0810
0001a2 0204      	.DB  0x60,0x0,0x0,0x20,0x10,0x8,0x4,0x2
0001a3 0000
0001a4 0000
0001a5 0000
0001a6 5f00      	.DB  0x0,0x0,0x0,0x0,0x0,0x0,0x0,0x5F
0001a7 0000
0001a8 0700
0001a9 0700
0001aa 1400      	.DB  0x0,0x0,0x0,0x7,0x0,0x7,0x0,0x14
0001ab 147f
0001ac 147f
0001ad 2a24
0001ae 2a7f      	.DB  0x7F,0x14,0x7F,0x14,0x24,0x2A,0x7F,0x2A
0001af 2312
0001b0 0813
0001b1 6264
0001b2 4936      	.DB  0x12,0x23,0x13,0x8,0x64,0x62,0x36,0x49
0001b3 2255
0001b4 0050
0001b5 0305
0001b6 0000      	.DB  0x55,0x22,0x50,0x0,0x5,0x3,0x0,0x0
0001b7 1c00
0001b8 4122
0001b9 0000
0001ba 2241      	.DB  0x0,0x1C,0x22,0x41,0x0,0x0,0x41,0x22
0001bb 001c
0001bc 0814
0001bd 083e
0001be 0814      	.DB  0x1C,0x0,0x14,0x8,0x3E,0x8,0x14,0x8
0001bf 3e08
0001c0 0808
0001c1 5000
0001c2 0030      	.DB  0x8,0x3E,0x8,0x8,0x0,0x50,0x30,0x0
0001c3 0800
0001c4 0808
0001c5 0808
0001c6 6000      	.DB  0x0,0x8,0x8,0x8,0x8,0x8,0x0,0x60
0001c7 0060
0001c8 2000
0001c9 0810
0001ca 0204      	.DB  0x60,0x0,0x0,0x20,0x10,0x8,0x4,0x2
0001cb 0600
0001cc 0909
0001cd 0006
0001ce 7f42      	.DB  0x0,0x6,0x9,0x9,0x6,0x0,0x42,0x7F
0001cf 0040
0001d0 6142
0001d1 4951
0001d2 2146      	.DB  0x40,0x0,0x42,0x61,0x51,0x49,0x46,0x21
0001d3 4541
0001d4 314b
0001d5 1418
0001d6 7f12      	.DB  0x41,0x45,0x4B,0x31,0x18,0x14,0x12,0x7F
0001d7 2710
0001d8 4545
0001d9 3945
0001da 4a3c      	.DB  0x10,0x27,0x45,0x45,0x45,0x39,0x3C,0x4A
0001db 4949
0001dc 0130
0001dd 0971
0001de 0305      	.DB  0x49,0x49,0x30,0x1,0x71,0x9,0x5,0x3
0001df 4936
0001e0 4949
0001e1 0636
0001e2 4949      	.DB  0x36,0x49,0x49,0x49,0x36,0x6,0x49,0x49
0001e3 1e29
0001e4 3600
0001e5 0036
0001e6 0000      	.DB  0x29,0x1E,0x0,0x36,0x36,0x0,0x0,0x0
0001e7 3656
0001e8 0000
0001e9 1408
0001ea 4122      	.DB  0x56,0x36,0x0,0x0,0x8,0x14,0x22,0x41
0001eb 1400
0001ec 1414
0001ed 1414
0001ee 4100      	.DB  0x0,0x14,0x14,0x14,0x14,0x14,0x0,0x41
0001ef 1422
0001f0 0208
0001f1 5101
0001f2 0609      	.DB  0x22,0x14,0x8,0x2,0x1,0x51,0x9,0x6
0001f3 117e
0001f4 1111
0001f5 7f7e
0001f6 4949      	.DB  0x7E,0x11,0x11,0x11,0x7E,0x7F,0x49,0x49
0001f7 3149
0001f8 497f
0001f9 4949
0001fa 7f36      	.DB  0x49,0x31,0x7F,0x49,0x49,0x49,0x36,0x7F
0001fb 0101
0001fc 0301
0001fd 3e60
0001fe 2121      	.DB  0x1,0x1,0x1,0x3,0x60,0x3E,0x21,0x21
0001ff 7f7f
000200 4949
000201 4149
000202 0877      	.DB  0x7F,0x7F,0x49,0x49,0x49,0x41,0x77,0x8
000203 087f
000204 2277
000205 4941
000206 3649      	.DB  0x7F,0x8,0x77,0x22,0x41,0x49,0x49,0x36
000207 107f
000208 0408
000209 7f7f
00020a 0910      	.DB  0x7F,0x10,0x8,0x4,0x7F,0x7F,0x10,0x9
00020b 7f04
00020c 087f
00020d 2214
00020e 4041      	.DB  0x4,0x7F,0x7F,0x8,0x14,0x22,0x41,0x40
00020f 013e
000210 7f01
000211 027f
000212 020c      	.DB  0x3E,0x1,0x1,0x7F,0x7F,0x2,0xC,0x2
000213 7f7f
000214 0808
000215 7f08
000216 413e      	.DB  0x7F,0x7F,0x8,0x8,0x8,0x7F,0x3E,0x41
000217 4141
000218 7f3e
000219 0101
00021a 7f01      	.DB  0x41,0x41,0x3E,0x7F,0x1,0x1,0x1,0x7F
00021b 097f
00021c 0909
00021d 3e06
00021e 4141      	.DB  0x7F,0x9,0x9,0x9,0x6,0x3E,0x41,0x41
00021f 2241
000220 0101
000221 017f
000222 2701      	.DB  0x41,0x22,0x1,0x1,0x7F,0x1,0x1,0x27
000223 4848
000224 3f48
000225 211e
000226 217f      	.DB  0x48,0x48,0x48,0x3F,0x1E,0x21,0x7F,0x21
000227 631e
000228 0814
000229 6314
00022a 203f      	.DB  0x1E,0x63,0x14,0x8,0x14,0x63,0x3F,0x20
00022b 3f20
00022c 0760
00022d 0808
00022e 7f08      	.DB  0x20,0x3F,0x60,0x7,0x8,0x8,0x8,0x7F
00022f 407f
000230 407f
000231 3f7f
000232 3f20      	.DB  0x7F,0x40,0x7F,0x40,0x7F,0x3F,0x20,0x3F
000233 7f20
000234 7f01
000235 4848
000236 7f30      	.DB  0x20,0x7F,0x1,0x7F,0x48,0x48,0x30,0x7F
000237 3048
000238 7f00
000239 7f00
00023a 4848      	.DB  0x48,0x30,0x0,0x7F,0x0,0x7F,0x48,0x48
00023b 2230
00023c 4941
00023d 3e49
00023e 087f      	.DB  0x30,0x22,0x41,0x49,0x49,0x3E,0x7F,0x8
00023f 413e
000240 463e
000241 1929
000242 7f09      	.DB  0x3E,0x41,0x3E,0x46,0x29,0x19,0x9,0x7F
                 
                 ;REGISTER BIT VARIABLES INITIALIZATION
                 __REG_BIT_VARS:
000243 0000      	.DW  0x0000
                 
                 ;GLOBAL REGISTER VARIABLES INITIALIZATION
                 __REG_VARS:
000244 0000
000245 0000      	.DB  0x0,0x0,0x0,0x0
000246 0000      	.DB  0x0,0x0
                 
                 _0x25:
C:\Documents and Settings\User\Desktop\!my\New_Plate_OLED_1\Debug\List\test2.asm(1274): warning: .cseg .db misalignment - padding zero byte
000247 0001      	.DB  0x1
                 _0x26:
C:\Documents and Settings\User\Desktop\!my\New_Plate_OLED_1\Debug\List\test2.asm(1276): warning: .cseg .db misalignment - padding zero byte
000248 003c      	.DB  0x3C
                 _0x0:
000249 d220
00024a ca2e
00024b c0cb
00024c 25cf      	.DB  0x20,0xD2,0x2E,0xCA,0xCB,0xC0,0xCF,0x25
00024d 2e32
00024e 6375
00024f 2000
000250 6955      	.DB  0x32,0x2E,0x75,0x63,0x0,0x20,0x55,0x69
000251 206e
000252 253d
000253 2e34
000254 4275      	.DB  0x6E,0x20,0x3D,0x25,0x34,0x2E,0x75,0x42
000255 0020
000256 2020
000257 2020
000258 2020      	.DB  0x20,0x0,0x20,0x20,0x20,0x20,0x20,0x20
000259 5520
00025a 2062
00025b 203d
00025c 3225      	.DB  0x20,0x55,0x62,0x20,0x3D,0x20,0x25,0x32
00025d 752e
00025e 252e
00025f 2e31
000260 4275      	.DB  0x2E,0x75,0x2E,0x25,0x31,0x2E,0x75,0x42
000261 2020
000262 2020
000263 2020
000264 0020      	.DB  0x20,0x20,0x20,0x20,0x20,0x20,0x20,0x0
000265 2020
000266 2020
000267 2020
000268 2020      	.DB  0x20,0x20,0x20,0x20,0x20,0x20,0x20,0x20
000269 2020
00026a 2020
00026b 2020
00026c 2020      	.DB  0x20,0x20,0x20,0x20,0x20,0x20,0x20,0x20
00026d 2020
00026e 2020
00026f 2020
000270 2000      	.DB  0x20,0x20,0x20,0x20,0x20,0x20,0x0,0x20
000271 2121
000272 2021
000273 c1ce
000274 cbd1      	.DB  0x21,0x21,0x21,0x20,0xCE,0xC1,0xD1,0xCB
000275 c6d3
000276 c2c8
000277 cdc0
000278 c5c8      	.DB  0xD3,0xC6,0xC8,0xC2,0xC0,0xCD,0xC8,0xC5
000279 2120
00027a 2121
00027b 0020
00027c 2020      	.DB  0x20,0x21,0x21,0x21,0x20,0x0,0x20,0x20
00027d 2054
00027e 2d3d
00027f 3325
000280 692e      	.DB  0x54,0x20,0x3D,0x2D,0x25,0x33,0x2E,0x69
000281 432a
000282 4e20
000283 253a
000284 2e35      	.DB  0x2A,0x43,0x20,0x4E,0x3A,0x25,0x35,0x2E
000285 6875
000286 0020
000287 2020
000288 2054      	.DB  0x75,0x68,0x20,0x0,0x20,0x20,0x54,0x20
000289 203d
00028a 3325
00028b 692e
00028c 432a      	.DB  0x3D,0x20,0x25,0x33,0x2E,0x69,0x2A,0x43
00028d 4e20
00028e 253a
00028f 2e35
000290 6875      	.DB  0x20,0x4E,0x3A,0x25,0x35,0x2E,0x75,0x68
000291 0020
000292 2020
000293 2054
000294 203d      	.DB  0x20,0x0,0x20,0x20,0x54,0x20,0x3D,0x20
000295 2f6e
000296 2063
000297 2020
000298 3a4e      	.DB  0x6E,0x2F,0x63,0x20,0x20,0x20,0x4E,0x3A
000299 3525
00029a 752e
00029b 2068
00029c 2000      	.DB  0x25,0x35,0x2E,0x75,0x68,0x20,0x0,0x20
00029d 694d
00029e 7263
00029f 436f
0002a0 6172      	.DB  0x4D,0x69,0x63,0x72,0x6F,0x43,0x72,0x61
0002a1 7466
0002a2 0020
0002a3 5428
0002a4 294d      	.DB  0x66,0x74,0x20,0x0,0x28,0x54,0x4D,0x29
0002a5 2000
0002a6 4750
0002a7 4953
0002a8 2049      	.DB  0x0,0x20,0x50,0x47,0x53,0x49,0x49,0x20
0002a9 7620
0002aa 322e
0002ab 0020
0002ac 3120      	.DB  0x20,0x76,0x2E,0x32,0x20,0x0,0x20,0x31
0002ad 203a
0002ae c2c0
0002af ced2
0002b0 2020      	.DB  0x3A,0x20,0xC0,0xC2,0xD2,0xCE,0x20,0x20
0002b1 2020
0002b2 2400
0002b3 2000
0002b4 4820      	.DB  0x20,0x20,0x0,0x24,0x0,0x20,0x20,0x48
0002b5 5445
0002b6 4320
0002b7 5445
0002b8 21c8      	.DB  0x45,0x54,0x20,0x43,0x45,0x54,0xC8,0x21
0002b9 0020
0002ba 2020
0002bb 2020
0002bc 3325      	.DB  0x20,0x0,0x20,0x20,0x20,0x20,0x25,0x33
0002bd 752e
0002be 2063
0002bf 2020
0002c0 2000      	.DB  0x2E,0x75,0x63,0x20,0x20,0x20,0x0,0x20
0002c1 3a32
0002c2 d020
0002c3 d7d3
0002c4 cecd      	.DB  0x32,0x3A,0x20,0xD0,0xD3,0xD7,0xCD,0xCE
0002c5 20c9
0002c6 2000
0002c7 3a33
0002c8 d120      	.DB  0xC9,0x20,0x0,0x20,0x33,0x3A,0x20,0xD1
0002c9 ced2
0002ca 20cf
0002cb 2020
0002cc 2000      	.DB  0xD2,0xCE,0xCF,0x20,0x20,0x20,0x0,0x20
0002cd c0cd
0002ce d2d1
0002cf ced0
0002d0 cac9      	.DB  0xCD,0xC0,0xD1,0xD2,0xD0,0xCE,0xC9,0xCA
0002d1 20c8
0002d2 2000
0002d3 3474
0002d4 2020      	.DB  0xC8,0x20,0x0,0x20,0x74,0x34,0x20,0x20
0002d5 253d
0002d6 2e34
0002d7 6375
0002d8 0020      	.DB  0x3D,0x25,0x34,0x2E,0x75,0x63,0x20,0x0
0002d9 2020
0002da c220
0002db c5d0
0002dc dfcc      	.DB  0x20,0x20,0x20,0xC2,0xD0,0xC5,0xCC,0xDF
0002dd ce20
0002de cec1
0002df c0c3
0002e0 c5d9      	.DB  0x20,0xCE,0xC1,0xCE,0xC3,0xC0,0xD9,0xC5
0002e1 c8cd
0002e2 20df
0002e3 2020
0002e4 2000      	.DB  0xCD,0xC8,0xDF,0x20,0x20,0x20,0x0,0x20
0002e5 3574
0002e6 2020
0002e7 253d
0002e8 2e34      	.DB  0x74,0x35,0x20,0x20,0x3D,0x25,0x34,0x2E
0002e9 6375
0002ea 0020
0002eb cf20
0002ec ced0      	.DB  0x75,0x63,0x20,0x0,0x20,0xCF,0xD0,0xCE
0002ed d0c3
0002ee c2c5
0002ef c120
0002f0 c7c5      	.DB  0xC3,0xD0,0xC5,0xC2,0x20,0xC1,0xC5,0xC7
0002f1 cd20
0002f2 c3c0
0002f3 d3d0
0002f4 cac7      	.DB  0x20,0xCD,0xC0,0xC3,0xD0,0xD3,0xC7,0xCA
0002f5 20c8
0002f6 2000
0002f7 7a54
0002f8 2020      	.DB  0xC8,0x20,0x0,0x20,0x54,0x7A,0x20,0x20
0002f9 253d
0002fa 2e33
0002fb 2a75
0002fc 2043      	.DB  0x3D,0x25,0x33,0x2E,0x75,0x2A,0x43,0x20
0002fd 2000
0002fe c8cc
0002ff 2ecd
000300 c5d2      	.DB  0x0,0x20,0xCC,0xC8,0xCD,0x2E,0xD2,0xC5
000301 cfcc
000302 ce2e
000303 cec1
000304 c0c3      	.DB  0xCC,0xCF,0x2E,0xCE,0xC1,0xCE,0xC3,0xC0
000305 c5d9
000306 c8cd
000307 20df
000308 0020      	.DB  0xD9,0xC5,0xCD,0xC8,0xDF,0x20,0x20,0x0
000309 4b20
00030a 207a
00030b 3d20
00030c 3425      	.DB  0x20,0x4B,0x7A,0x20,0x20,0x3D,0x25,0x34
00030d 752e
00030e 0020
00030f ca20
000310 cbce      	.DB  0x2E,0x75,0x20,0x0,0x20,0xCA,0xCE,0xCB
000311 d7c8
000312 d1c5
000313 c2d2
000314 20ce      	.DB  0xC8,0xD7,0xC5,0xD1,0xD2,0xC2,0xCE,0x20
000315 c0c7
000316 d3cf
000317 cad1
000318 c2ce      	.DB  0xC7,0xC0,0xCF,0xD3,0xD1,0xCA,0xCE,0xC2
000319 2020
00031a 2000
00031b c73c
00031c d1c0      	.DB  0x20,0x20,0x0,0x20,0x3C,0xC7,0xC0,0xD1
00031d cecb
00031e cacd
00031f 3ec0
000320 0020      	.DB  0xCB,0xCE,0xCD,0xCA,0xC0,0x3E,0x20,0x0
000321 3c20
000322 ca20
000323 c0cb
000324 c0cf      	.DB  0x20,0x3C,0x20,0xCA,0xCB,0xC0,0xCF,0xC0
000325 20cd
000326 203e
000327 2000
000328 2020      	.DB  0xCD,0x20,0x3E,0x20,0x0,0x20,0x20,0x20
000329 2020
00032a c8d2
00032b 20cf
00032c d0cf      	.DB  0x20,0x20,0xD2,0xC8,0xCF,0x20,0xCF,0xD0
00032d c2c8
00032e c4ce
00032f 20c0
000330 2020      	.DB  0xC8,0xC2,0xCE,0xC4,0xC0,0x20,0x20,0x20
000331 2020
000332 0020
000333 d020
000334 d2ce      	.DB  0x20,0x20,0x20,0x0,0x20,0xD0,0xCE,0xD2
000335 d0ce
000336 6f28
000337 6666
000338 0029      	.DB  0xCE,0xD0,0x28,0x6F,0x66,0x66,0x29,0x0
000339 d020
00033a d2ce
00033b d0ce
00033c 6f28      	.DB  0x20,0xD0,0xCE,0xD2,0xCE,0xD0,0x28,0x6F
00033d 296e
00033e 0020
00033f 2020
000340 d120      	.DB  0x6E,0x29,0x20,0x0,0x20,0x20,0x20,0xD1
000341 c3c8
000342 c0cd
000343 20cb
000344 203a      	.DB  0xC8,0xC3,0xCD,0xC0,0xCB,0x20,0x3A,0x20
000345 d027
000346 d2ce
000347 d0ce
000348 2027      	.DB  0x27,0xD0,0xCE,0xD2,0xCE,0xD0,0x27,0x20
000349 2020
00034a 2000
00034b 202d
00034c dbc2      	.DB  0x20,0x20,0x0,0x20,0x2D,0x20,0xC2,0xDB
00034d ced5
00034e 20c4
00034f 202d
000350 2000      	.DB  0xD5,0xCE,0xC4,0x20,0x2D,0x20,0x0,0x20
000351 c420
000352 dfcb
000353 c220
000354 d5db      	.DB  0x20,0xC4,0xCB,0xDF,0x20,0xC2,0xDB,0xD5
000355 c4ce
000356 20c0
000357 273e
000358 c2c2      	.DB  0xCE,0xC4,0xC0,0x20,0x3E,0x27,0xC2,0xC2
000359 c4ce
00035a 2027
00035b 0020
00035c 2020      	.DB  0xCE,0xC4,0x27,0x20,0x20,0x0,0x20,0x20
00035d c0c7
00035e d3cf
00035f cad1
000360 2520      	.DB  0xC7,0xC0,0xCF,0xD3,0xD1,0xCA,0x20,0x25
000361 2e31
000362 2075
000363 2000
000364 c0c7      	.DB  0x31,0x2E,0x75,0x20,0x0,0x20,0xC7,0xC0
000365 c8c6
000366 c0c3
000367 c8cd
000368 20c5      	.DB  0xC6,0xC8,0xC3,0xC0,0xCD,0xC8,0xC5,0x20
000369 0020
00036a c720
00036b d1c0
00036c cecb      	.DB  0x20,0x0,0x20,0xC7,0xC0,0xD1,0xCB,0xCE
00036d cacd
00036e 2dc0
00036f 203e
000370 2000      	.DB  0xCD,0xCA,0xC0,0x2D,0x3E,0x20,0x0,0x20
000371 cbca
000372 cfc0
000373 cdc0
000374 2d20      	.DB  0xCA,0xCB,0xC0,0xCF,0xC0,0xCD,0x20,0x2D
000375 203e
000376 0020
000377 d120
000378 c0d2      	.DB  0x3E,0x20,0x20,0x0,0x20,0xD1,0xD2,0xC0
000379 d2d0
00037a d0c5
00037b 253a
00037c 2e31      	.DB  0xD0,0xD2,0xC5,0xD0,0x3A,0x25,0x31,0x2E
00037d 6375
00037e 0020
00037f d0cf
000380 c3ce      	.DB  0x75,0x63,0x20,0x0,0xCF,0xD0,0xCE,0xC3
000381 c5d0
000382 3ac2
000383 3225
000384 752e      	.DB  0xD0,0xC5,0xC2,0x3A,0x25,0x32,0x2E,0x75
000385 2063
000386 2000
000387 c0c7
000388 cbd1      	.DB  0x63,0x20,0x0,0x20,0xC7,0xC0,0xD1,0xCB
000389 cdce
00038a c0ca
00038b 3c20
00038c 0020      	.DB  0xCE,0xCD,0xCA,0xC0,0x20,0x3C,0x20,0x0
00038d ca20
00038e c0cb
00038f c0cf
000390 20cd      	.DB  0x20,0xCA,0xCB,0xC0,0xCF,0xC0,0xCD,0x20
000391 2d3c
000392 2020
000393 2000
000394 c0d0      	.DB  0x3C,0x2D,0x20,0x20,0x0,0x20,0xD0,0xC0
000395 c3c7
000396 cdce
000397 253a
000398 2e32      	.DB  0xC7,0xC3,0xCE,0xCD,0x3A,0x25,0x32,0x2E
000399 6375
00039a 0020
00039b cf20
00039c c2ce      	.DB  0x75,0x63,0x20,0x0,0x20,0xCF,0xCE,0xC2
00039d ced2
00039e cdd0
00039f c9db
0003a0 2020      	.DB  0xD2,0xCE,0xD0,0xCD,0xDB,0xC9,0x20,0x20
0003a1 2000
0003a2 2020
0003a3 c0c7
0003a4 d3cf      	.DB  0x0,0x20,0x20,0x20,0xC7,0xC0,0xCF,0xD3
0003a5 cad1
0003a6 2020
0003a7 0020
0003a8 2020      	.DB  0xD1,0xCA,0x20,0x20,0x20,0x0,0x20,0x20
0003a9 c0d0
0003aa cec1
0003ab c0d2
0003ac 2020      	.DB  0xD0,0xC0,0xC1,0xCE,0xD2,0xC0,0x20,0x20
0003ad 0020
0003ae d120
0003af d2c5
0003b0 20dc      	.DB  0x20,0x0,0x20,0xD1,0xC5,0xD2,0xDC,0x20
0003b1 cecd
0003b2 ccd0
0003b3 20c0
0003b4 2000      	.DB  0xCD,0xCE,0xD0,0xCC,0xC0,0x20,0x0,0x20
0003b5 ce20
0003b6 d2d1
0003b7 cdc0
0003b8 c2ce      	.DB  0x20,0xCE,0xD1,0xD2,0xC0,0xCD,0xCE,0xC2
0003b9 2020
0003ba 2000
0003bb d5ce
0003bc c0cb      	.DB  0x20,0x20,0x0,0x20,0xCE,0xD5,0xCB,0xC0
0003bd c4c6
0003be cdc5
0003bf c5c8
0003c0 0020      	.DB  0xC6,0xC4,0xC5,0xCD,0xC8,0xC5,0x20,0x0
0003c1 2128
0003c2 2029
0003c3 d8ce
0003c4 c1c8      	.DB  0x28,0x21,0x29,0x20,0xCE,0xD8,0xC8,0xC1
0003c5 c0ca
0003c6 0020
0003c7 cd20
0003c8 20c5      	.DB  0xCA,0xC0,0x20,0x0,0x20,0xCD,0xC5,0x20
0003c9 c0c7
0003ca d3cf
0003cb cad1
0003cc 0020      	.DB  0xC7,0xC0,0xCF,0xD3,0xD1,0xCA,0x20,0x0
0003cd 2020
0003ce cbc4
0003cf 20df
0003d0 c1d1      	.DB  0x20,0x20,0xC4,0xCB,0xDF,0x20,0xD1,0xC1
0003d1 ced0
0003d2 c0d1
0003d3 3e20
0003d4 c227      	.DB  0xD0,0xCE,0xD1,0xC0,0x20,0x3E,0x27,0xC2
0003d5 cec2
0003d6 27c4
0003d7 2020
0003d8 2000      	.DB  0xC2,0xCE,0xC4,0x27,0x20,0x20,0x0,0x20
0003d9 c5cd
0003da 20d2
0003db ced2
0003dc c0ca      	.DB  0xCD,0xC5,0xD2,0x20,0xD2,0xCE,0xCA,0xC0
0003dd 2020
0003de 2800
0003df 2921
0003e0 c720      	.DB  0x20,0x20,0x0,0x28,0x21,0x29,0x20,0xC7
0003e1 d9c0
0003e2 d2c8
0003e3 20c0
0003e4 2000      	.DB  0xC0,0xD9,0xC8,0xD2,0xC0,0x20,0x0,0x20
0003e5 6955
0003e6 206e
0003e7 253d
0003e8 2e34      	.DB  0x55,0x69,0x6E,0x20,0x3D,0x25,0x34,0x2E
0003e9 4275
0003ea 2100
0003eb 6955
0003ec 206e      	.DB  0x75,0x42,0x0,0x21,0x55,0x69,0x6E,0x20
0003ed 203e
0003ee 3632
0003ef c230
0003f0 0021      	.DB  0x3E,0x20,0x32,0x36,0x30,0xC2,0x21,0x0
0003f1 2020
0003f2 dbc2
0003f3 ced1
0003f4 ceca      	.DB  0x20,0x20,0xC2,0xDB,0xD1,0xCE,0xCA,0xCE
0003f5 20c5
0003f6 c0cd
0003f7 d0cf
0003f8 c6df      	.DB  0xC5,0x20,0xCD,0xC0,0xCF,0xD0,0xDF,0xC6
0003f9 cdc5
0003fa c5c8
0003fb 2120
C:\Documents and Settings\User\Desktop\!my\New_Plate_OLED_1\Debug\List\test2.asm(1386): warning: .cseg .db misalignment - padding zero byte
0003fc 0000      	.DB  0xC5,0xCD,0xC8,0xC5,0x20,0x21,0x0
                 
                 __GLOBAL_INI_TBL:
0003fd 0001      	.DW  0x01
0003fe 0002      	.DW  0x02
0003ff 0486      	.DW  __REG_BIT_VARS*2
                 
000400 0006      	.DW  0x06
000401 0006      	.DW  0x06
000402 0488      	.DW  __REG_VARS*2
                 
000403 0001      	.DW  0x01
000404 018b      	.DW  _PositionPointer_G000
000405 048e      	.DW  _0x25*2
                 
000406 0001      	.DW  0x01
000407 018c      	.DW  _podsvet_G000
000408 0490      	.DW  _0x26*2
                 
                 _0xFFFFFFFF:
000409 0000      	.DW  0
                 
                 #define __GLOBAL_INI_TBL_PRESENT 1
                 
                 __RESET:
00040a 94f8      	CLI
00040b 27ee      	CLR  R30
00040c bbec      	OUT  EECR,R30
                 
                 ;INTERRUPT VECTORS ARE PLACED
                 ;AT THE START OF FLASH
00040d e0f1      	LDI  R31,1
00040e bffb      	OUT  GICR,R31
00040f bfeb      	OUT  GICR,R30
000410 bfe5      	OUT  MCUCR,R30
                 
                 ;CLEAR R2-R14
000411 e08d      	LDI  R24,(14-2)+1
000412 e0a2      	LDI  R26,2
000413 27bb      	CLR  R27
                 __CLEAR_REG:
000414 93ed      	ST   X+,R30
000415 958a      	DEC  R24
000416 f7e9      	BRNE __CLEAR_REG
                 
                 ;CLEAR SRAM
000417 e080      	LDI  R24,LOW(__CLEAR_SRAM_SIZE)
000418 e094      	LDI  R25,HIGH(__CLEAR_SRAM_SIZE)
000419 e6a0      	LDI  R26,__SRAM_START
                 __CLEAR_SRAM:
00041a 93ed      	ST   X+,R30
00041b 9701      	SBIW R24,1
00041c f7e9      	BRNE __CLEAR_SRAM
                 
                 ;GLOBAL VARIABLES INITIALIZATION
00041d efea      	LDI  R30,LOW(__GLOBAL_INI_TBL*2)
00041e e0f7      	LDI  R31,HIGH(__GLOBAL_INI_TBL*2)
                 __GLOBAL_INI_NEXT:
00041f 9185      	LPM  R24,Z+
000420 9195      	LPM  R25,Z+
000421 9700      	SBIW R24,0
000422 f061      	BREQ __GLOBAL_INI_END
000423 91a5      	LPM  R26,Z+
000424 91b5      	LPM  R27,Z+
000425 9005      	LPM  R0,Z+
000426 9015      	LPM  R1,Z+
000427 01bf      	MOVW R22,R30
000428 01f0      	MOVW R30,R0
                 __GLOBAL_INI_LOOP:
000429 9005      	LPM  R0,Z+
00042a 920d      	ST   X+,R0
00042b 9701      	SBIW R24,1
00042c f7e1      	BRNE __GLOBAL_INI_LOOP
00042d 01fb      	MOVW R30,R22
00042e cff0      	RJMP __GLOBAL_INI_NEXT
                 __GLOBAL_INI_END:
                 
                 ;HARDWARE STACK POINTER INITIALIZATION
00042f e5ef      	LDI  R30,LOW(__SRAM_END-__HEAP_SIZE)
000430 bfed      	OUT  SPL,R30
000431 e0e4      	LDI  R30,HIGH(__SRAM_END-__HEAP_SIZE)
000432 bfee      	OUT  SPH,R30
                 
                 ;DATA STACK POINTER INITIALIZATION
000433 e6c0      	LDI  R28,LOW(__SRAM_START+__DSTACK_SIZE)
000434 e0d1      	LDI  R29,HIGH(__SRAM_START+__DSTACK_SIZE)
                 
000435 c315      	RJMP _main
                 
                 	.ESEG
                 	.ORG 0
                 
                 	.DSEG
                 	.ORG 0x160
                 
                 	.CSEG
                 ;/*******************************************************
                 ;This program was created by the
                 ;CodeWizardAVR V3.12 Advanced
                 ;Automatic Program Generator
                 ; Copyright 1998-2014 Pavel Haiduc, HP InfoTech s.r.l.
                 ;http://www.hpinfotech.com
                 ;
                 ;Project : test2
                 ;Version : 1
                 ;Date    : 17.02.2019
                 ;Author  : Kostya
                 ;Company :
                 ;Comments:
                 ;
                 ;
                 ;Chip type               : ATmega8
                 ;Program type            : Application
                 ;AVR Core Clock frequency: 1,000000 MHz (8 MHz)
                 ;Memory model            : Small
                 ;External RAM size       : 0
                 ;Data Stack size         : 256
                 ;*******************************************************/
                 ;static char buff[30];
                 ;#include <mega8.h>
                 	#ifndef __SLEEP_DEFINED__
                 	#define __SLEEP_DEFINED__
                 	.EQU __se_bit=0x80
                 	.EQU __sm_mask=0x70
                 	.EQU __sm_powerdown=0x20
                 	.EQU __sm_powersave=0x30
                 	.EQU __sm_standby=0x60
                 	.EQU __sm_ext_standby=0x70
                 	.EQU __sm_adc_noise_red=0x10
                 	.SET power_ctrl_reg=mcucr
                 	#endif
                 ;#include <delay.h>
                 ;#include <i2c.h>
                 ;#include <stdio.h>
                 ;#include "ssd1306.c"
                 ;/*
                 ;  
                 ;OLED LCD SSD1306 .
                 ;   CVAVR.
                 ;22.12.2015  ..
                 ;*/
                 ;
                 ;#include <delay.h>
                 ;
                 ;void LCD_init(void);  //  
                 ;void LCD_Commmand(unsigned char ControByte, unsigned char DataByte); //   
                 ;void LCD_Goto(unsigned char x, unsigned char y);    // 
                 ;void LCD_Clear(void);  //  
                 ;//void LCD_Contrast(char set_contrast); //   0  255
                 ;void LCD_Blinc(unsigned int t,unsigned char x);  //t  ,  x 
                 ;void LCD_CharVeryBig(unsigned int c,unsigned char h); //
                 ;void LCD_Printf(unsigned char* buf, unsigned char size); //    - 0   2 -  - ...
                 ;void LCD_Mode(char set_mode); //1 - inverted / 0 - normal
                 ;void LCD_Sleep(char set);   //1 - on sleep / 0 - off sleep
                 ;void ShowLine(unsigned char line);
                 ;void ShowBigLine(unsigned char line);
                 ;
                 ;
                 ;unsigned char LCD_X,LCD_Y;
                 ;
                 ;#define SSD1306_I2C_ADDRESS					 0x78
                 ;// size
                 ;#define SSD1306_LCDWIDTH                      125
                 ;#define SSD1306_LCDHEIGHT                     64
                 ;#define SSD1306_DEFAULT_SPACE                 5
                 ;// Commands
                 ;#define SSD1306_SETCONTRAST                  0x81
                 ;#define SSD1306_DISPLAYALLON_RESUME          0xA4
                 ;#define SSD1306_DISPLAYALLON                 0xA5
                 ;#define SSD1306_NORMALDISPLAY                0xA6
                 ;#define SSD1306_INVERTDISPLAY                0xA7
                 ;#define SSD1306_DISPLAYOFF                   0xAE
                 ;#define SSD1306_DISPLAYON                    0xAF
                 ;#define SSD1306_SETDISPLAYOFFSET             0xD3
                 ;#define SSD1306_SETCOMPINS                   0xDA
                 ;#define SSD1306_SETVCOMDETECT                0xDB
                 ;#define SSD1306_SETDISPLAYCLOCKDIV           0xD5
                 ;#define SSD1306_SETPRECHARGE                 0xD9
                 ;#define SSD1306_SETMULTIPLEX                 0xA8
                 ;#define SSD1306_SETLOWCOLUMN                 0x00
                 ;#define SSD1306_SETHIGHCOLUMN                0x10
                 ;#define SSD1306_SETSTARTLINE                 0x40
                 ;#define SSD1306_MEMORYMODE                   0x20
                 ;#define SSD1306_COLUMNADDR                   0x21
                 ;#define SSD1306_PAGEADDR                     0x22
                 ;#define SSD1306_COMSCANINC                   0xC0
                 ;#define SSD1306_COMSCANDEC                   0xC8
                 ;#define SSD1306_SEGREMAP                     0xA0
                 ;#define SSD1306_CHARGEPUMP                   0x8D
                 ;#define SSD1306_EXTERNALVCC                   0x1
                 ;#define SSD1306_SWITCHCAPVCC                  0x2
                 ;// Scrolling #defines
                 ;#define SSD1306_ACTIVATE_SCROLL               0x2F
                 ;#define SSD1306_DEACTIVATE_SCROLL             0x2E
                 ;#define SSD1306_SET_VERTICAL_SCROLL_AREA      0xA3
                 ;#define SSD1306_RIGHT_HORIZONTAL_SCROLL       0x26
                 ;#define SSD1306_LEFT_HORIZONTAL_SCROLL        0x27
                 ;#define SSD1306_VERT_AND_RIGHT_HORIZ_SCROLL   0x29
                 ;#define SSD1306_VERT_AND_LEFT_HORIZ_SCROLL    0x2A
                 ;
                 ;#define COMAND		                          0x00
                 ;#define DATA		                          0x40
                 ;
                 ;flash unsigned char LCD_Buffer[0x0460] =      //0x0500
                 ;{
                 ;0x00, 0x00, 0x00, 0x00, 0x00,// 00 space
                 ;0x00, 0x00, 0x5F, 0x00, 0x00,// 01 !
                 ;0x00, 0x07, 0x00, 0x07, 0x00,// 02 "
                 ;0x14, 0x7F, 0x14, 0x7F, 0x14,// 03
                 ;0x24, 0x2A, 0x7F, 0x2A, 0x12,// 04
                 ;0x23, 0x13, 0x08, 0x64, 0x62,// 05
                 ;0x36, 0x49, 0x55, 0x22, 0x50,// 06
                 ;0x00, 0x05, 0x03, 0x00, 0x00,// 07
                 ;0x00, 0x1C, 0x22, 0x41, 0x00,// 08
                 ;0x00, 0x41, 0x22, 0x1C, 0x00,// 09
                 ;0x14, 0x08, 0x3E, 0x08, 0x14,// 0A
                 ;0x08, 0x08, 0x3E, 0x08, 0x08,// 0B
                 ;0x00, 0x50, 0x30, 0x00, 0x00,// 0C
                 ;0x08, 0x08, 0x08, 0x08, 0x08,// 0D
                 ;0x00, 0x60, 0x60, 0x00, 0x00,// 0E
                 ;0x20, 0x10, 0x08, 0x04, 0x02,// 0F
                 ;0x00, 0x00, 0x00, 0x00, 0x00,// 10
                 ;0x00, 0x00, 0x5F, 0x00, 0x00,// 11
                 ;0x00, 0x07, 0x00, 0x07, 0x00,// 12
                 ;0x14, 0x7F, 0x14, 0x7F, 0x14,// 13
                 ;0x24, 0x2A, 0x7F, 0x2A, 0x12,// 14
                 ;0x23, 0x13, 0x08, 0x64, 0x62,// 15
                 ;0x36, 0x49, 0x55, 0x22, 0x50,// 16
                 ;0x00, 0x05, 0x03, 0x00, 0x00,// 17
                 ;0x00, 0x1C, 0x22, 0x41, 0x00,// 18
                 ;0x00, 0x41, 0x22, 0x1C, 0x00,// 19
                 ;0x14, 0x08, 0x3E, 0x08, 0x14,// 1A
                 ;0x08, 0x08, 0x3E, 0x08, 0x08,// 1B
                 ;0x00, 0x50, 0x30, 0x00, 0x00,// 1C
                 ;0x08, 0x08, 0x08, 0x08, 0x08,// 1D
                 ;0x00, 0x60, 0x60, 0x00, 0x00,// 1E
                 ;0x20, 0x10, 0x08, 0x04, 0x02,// 1F
                 ;0x00, 0x00, 0x00, 0x00, 0x00,// 20 space
                 ;0x00, 0x00, 0x5F, 0x00, 0x00,// 21 !
                 ;0x00, 0x07, 0x00, 0x07, 0x00,// 22 "
                 ;0x14, 0x7F, 0x14, 0x7F, 0x14,// 23 #
                 ;0x24, 0x2A, 0x7F, 0x2A, 0x12,// 24 $
                 ;0x23, 0x13, 0x08, 0x64, 0x62,// 25 %
                 ;0x36, 0x49, 0x55, 0x22, 0x50,// 26 &
                 ;0x00, 0x05, 0x03, 0x00, 0x00,// 27 '
                 ;0x00, 0x1C, 0x22, 0x41, 0x00,// 28 (
                 ;0x00, 0x41, 0x22, 0x1C, 0x00,// 29 )
                 ;0x14, 0x08, 0x3E, 0x08, 0x14,// 2a *
                 ;0x08, 0x08, 0x3E, 0x08, 0x08,// 2b +
                 ;0x00, 0x50, 0x30, 0x00, 0x00,// 2c ,
                 ;0x08, 0x08, 0x08, 0x08, 0x08,// 2d -
                 ;0x00, 0x60, 0x60, 0x00, 0x00,// 2e .
                 ;0x20, 0x10, 0x08, 0x04, 0x02,// 2f /
                 ;0x3E, 0x51, 0x49, 0x45, 0x3E,// 30 0
                 ;0x00, 0x42, 0x7F, 0x40, 0x00,// 31 1
                 ;0x42, 0x61, 0x51, 0x49, 0x46,// 32 2
                 ;0x21, 0x41, 0x45, 0x4B, 0x31,// 33 3
                 ;0x18, 0x14, 0x12, 0x7F, 0x10,// 34 4
                 ;0x27, 0x45, 0x45, 0x45, 0x39,// 35 5
                 ;0x3C, 0x4A, 0x49, 0x49, 0x30,// 36 6
                 ;0x01, 0x71, 0x09, 0x05, 0x03,// 37 7
                 ;0x36, 0x49, 0x49, 0x49, 0x36,// 38 8
                 ;0x06, 0x49, 0x49, 0x29, 0x1E,// 39 9
                 ;0x00, 0x36, 0x36, 0x00, 0x00,// 3a :
                 ;0x00, 0x56, 0x36, 0x00, 0x00,// 3b ;
                 ;0x08, 0x14, 0x22, 0x41, 0x00,// 3c <
                 ;0x14, 0x14, 0x14, 0x14, 0x14,// 3d =
                 ;0x00, 0x41, 0x22, 0x14, 0x08,// 3e >
                 ;0x02, 0x01, 0x51, 0x09, 0x06,// 3f ?
                 ;0x32, 0x49, 0x79, 0x41, 0x3E,// 40 @
                 ;0x7E, 0x11, 0x11, 0x11, 0x7E,// 41 A
                 ;0x7F, 0x49, 0x49, 0x49, 0x36,// 42 B
                 ;0x3E, 0x41, 0x41, 0x41, 0x22,// 43 C
                 ;0x7F, 0x41, 0x41, 0x22, 0x1C,// 44 D
                 ;0x7F, 0x49, 0x49, 0x49, 0x41,// 45 E
                 ;0x7F, 0x09, 0x09, 0x09, 0x01,// 46 F
                 ;0x3E, 0x41, 0x49, 0x49, 0x7A,// 47 G
                 ;0x7F, 0x08, 0x08, 0x08, 0x7F,// 48 H
                 ;0x00, 0x41, 0x7F, 0x41, 0x00,// 49 I
                 ;0x20, 0x40, 0x41, 0x3F, 0x01,// 4a J
                 ;0x7F, 0x08, 0x14, 0x22, 0x41,// 4b K
                 ;0x7F, 0x40, 0x40, 0x40, 0x40,// 4c L
                 ;0x7F, 0x02, 0x0C, 0x02, 0x7F,// 4d M
                 ;0x7F, 0x04, 0x08, 0x10, 0x7F,// 4e N
                 ;0x3E, 0x41, 0x41, 0x41, 0x3E,// 4f O
                 ;0x7F, 0x09, 0x09, 0x09, 0x06,// 50 P
                 ;0x3E, 0x41, 0x51, 0x21, 0x5E,// 51 Q
                 ;0x7F, 0x09, 0x19, 0x29, 0x46,// 52 R
                 ;0x46, 0x49, 0x49, 0x49, 0x31,// 53 S
                 ;0x01, 0x01, 0x7F, 0x01, 0x01,// 54 T
                 ;0x3F, 0x40, 0x40, 0x40, 0x3F,// 55 U
                 ;0x1F, 0x20, 0x40, 0x20, 0x1F,// 56 V
                 ;0x3F, 0x40, 0x38, 0x40, 0x3F,// 57 W
                 ;0x63, 0x14, 0x08, 0x14, 0x63,// 58 X
                 ;0x07, 0x08, 0x70, 0x08, 0x07,// 59 Y
                 ;0x61, 0x51, 0x49, 0x45, 0x43,// 5a Z
                 ;0x00, 0x7F, 0x41, 0x41, 0x00,// 5b [
                 ;0x02, 0x04, 0x08, 0x10, 0x20,// 5c Yen Currency Sign
                 ;0x00, 0x41, 0x41, 0x7F, 0x00,// 5d ]
                 ;0x04, 0x02, 0x01, 0x02, 0x04,// 5e ^
                 ;0x40, 0x40, 0x40, 0x40, 0x40,// 5f _
                 ;0x00, 0x01, 0x02, 0x04, 0x00,// 60 `
                 ;0x20, 0x54, 0x54, 0x54, 0x78,// 61 a
                 ;0x7F, 0x48, 0x44, 0x44, 0x38,// 62 b
                 ;0x38, 0x44, 0x44, 0x44, 0x20,// 63 c
                 ;0x38, 0x44, 0x44, 0x48, 0x7F,// 64 d
                 ;0x38, 0x54, 0x54, 0x54, 0x18,// 65 e
                 ;0x08, 0x7E, 0x09, 0x01, 0x02,// 66 f
                 ;0x0C, 0x52, 0x52, 0x52, 0x3E,// 67 g
                 ;0x7F, 0x08, 0x04, 0x04, 0x78,// 68 h
                 ;0x00, 0x44, 0x7D, 0x40, 0x00,// 69 i
                 ;0x20, 0x40, 0x44, 0x3D, 0x00,// 6a j
                 ;0x7F, 0x10, 0x28, 0x44, 0x00,// 6b k
                 ;0x00, 0x41, 0x7F, 0x40, 0x00,// 6c l
                 ;0x7C, 0x04, 0x18, 0x04, 0x78,// 6d m
                 ;0x7C, 0x08, 0x04, 0x04, 0x78,// 6e n
                 ;0x38, 0x44, 0x44, 0x44, 0x38,// 6f o
                 ;0x7C, 0x14, 0x14, 0x14, 0x08,// 70 p
                 ;0x08, 0x14, 0x14, 0x18, 0x7C,// 71 q
                 ;0x7C, 0x08, 0x04, 0x04, 0x08,// 72 r
                 ;0x08, 0x54, 0x54, 0x54, 0x20,// 73 s
                 ;0x04, 0x3F, 0x44, 0x40, 0x20,// 74 t
                 ;0x3C, 0x40, 0x40, 0x20, 0x7C,// 75 u
                 ;0x1C, 0x20, 0x40, 0x20, 0x1C,// 76 v
                 ;0x3C, 0x40, 0x30, 0x40, 0x3C,// 77 w
                 ;0x44, 0x28, 0x10, 0x28, 0x44,// 78 x
                 ;0x0C, 0x50, 0x50, 0x50, 0x3C,// 79 y
                 ;0x44, 0x64, 0x54, 0x4C, 0x44,// 7a z
                 ;0x00, 0x08, 0x36, 0x41, 0x00,// 7b <
                 ;0x00, 0x00, 0x7F, 0x00, 0x00,// 7c |
                 ;0x00, 0x41, 0x36, 0x08, 0x00,// 7d >
                 ;0x10, 0x08, 0x08, 0x10, 0x08,// 7e Right Arrow ->
                 ;0x78, 0x46, 0x41, 0x46, 0x78,// 7f Left Arrow <-
                 ;0x00, 0x00, 0x00, 0x00, 0x00,// 80
                 ;0x00, 0x00, 0x5F, 0x00, 0x00,// 81
                 ;0x00, 0x07, 0x00, 0x07, 0x00,// 82
                 ;0x14, 0x7F, 0x14, 0x7F, 0x14,// 83
                 ;0x24, 0x2A, 0x7F, 0x2A, 0x12,// 84
                 ;0x23, 0x13, 0x08, 0x64, 0x62,// 85
                 ;0x36, 0x49, 0x55, 0x22, 0x50,// 86
                 ;0x00, 0x05, 0x03, 0x00, 0x00,// 87
                 ;0x00, 0x1C, 0x22, 0x41, 0x00,// 88
                 ;0x00, 0x41, 0x22, 0x1C, 0x00,// 89
                 ;0x14, 0x08, 0x3E, 0x08, 0x14,// 8A
                 ;0x08, 0x08, 0x3E, 0x08, 0x08,// 8B
                 ;0x00, 0x50, 0x30, 0x00, 0x00,// 8C
                 ;0x08, 0x08, 0x08, 0x08, 0x08,// 8D
                 ;0x00, 0x60, 0x60, 0x00, 0x00,// 8E
                 ;0x20, 0x10, 0x08, 0x04, 0x02,// 8F
                 ;0x00, 0x00, 0x00, 0x00, 0x00,// 90
                 ;0x00, 0x00, 0x5F, 0x00, 0x00,// 91
                 ;0x00, 0x07, 0x00, 0x07, 0x00,// 92
                 ;0x14, 0x7F, 0x14, 0x7F, 0x14,// 93
                 ;0x24, 0x2A, 0x7F, 0x2A, 0x12,// 94
                 ;0x23, 0x13, 0x08, 0x64, 0x62,// 95
                 ;0x36, 0x49, 0x55, 0x22, 0x50,// 96
                 ;0x00, 0x05, 0x03, 0x00, 0x00,// 97
                 ;0x00, 0x1C, 0x22, 0x41, 0x00,// 98
                 ;0x00, 0x41, 0x22, 0x1C, 0x00,// 99
                 ;0x14, 0x08, 0x3E, 0x08, 0x14,// 9A
                 ;0x08, 0x08, 0x3E, 0x08, 0x08,// 9B
                 ;0x00, 0x50, 0x30, 0x00, 0x00,// 9C
                 ;0x08, 0x08, 0x08, 0x08, 0x08,// 9D
                 ;0x00, 0x60, 0x60, 0x00, 0x00,// 9E
                 ;0x20, 0x10, 0x08, 0x04, 0x02,// 9F
                 ;0x00, 0x00, 0x00, 0x00, 0x00,// A0
                 ;0x00, 0x00, 0x5F, 0x00, 0x00,// A1
                 ;0x00, 0x07, 0x00, 0x07, 0x00,// A2
                 ;0x14, 0x7F, 0x14, 0x7F, 0x14,// A3
                 ;0x24, 0x2A, 0x7F, 0x2A, 0x12,// A4
                 ;0x23, 0x13, 0x08, 0x64, 0x62,// A5
                 ;0x36, 0x49, 0x55, 0x22, 0x50,// A6
                 ;0x00, 0x05, 0x03, 0x00, 0x00,// A7
                 ;0x00, 0x1C, 0x22, 0x41, 0x00,// A8
                 ;0x00, 0x41, 0x22, 0x1C, 0x00,// A9
                 ;0x14, 0x08, 0x3E, 0x08, 0x14,// AA
                 ;0x08, 0x08, 0x3E, 0x08, 0x08,// AB
                 ;0x00, 0x50, 0x30, 0x00, 0x00,// AC
                 ;0x08, 0x08, 0x08, 0x08, 0x08,// AD
                 ;0x00, 0x60, 0x60, 0x00, 0x00,// AE
                 ;0x20, 0x10, 0x08, 0x04, 0x02,// AF
                 ;//0x3E, 0x51, 0x49, 0x45, 0x3E,// B0
                 ;0x00, 0x06, 0x09, 0x09, 0x06,
                 ;0x00, 0x42, 0x7F, 0x40, 0x00,// B1
                 ;0x42, 0x61, 0x51, 0x49, 0x46,// B2
                 ;0x21, 0x41, 0x45, 0x4B, 0x31,// B3
                 ;0x18, 0x14, 0x12, 0x7F, 0x10,// B4
                 ;0x27, 0x45, 0x45, 0x45, 0x39,// B5
                 ;0x3C, 0x4A, 0x49, 0x49, 0x30,// B6
                 ;0x01, 0x71, 0x09, 0x05, 0x03,// B7
                 ;0x36, 0x49, 0x49, 0x49, 0x36,// B8
                 ;0x06, 0x49, 0x49, 0x29, 0x1E,// B9
                 ;0x00, 0x36, 0x36, 0x00, 0x00,// BA
                 ;0x00, 0x56, 0x36, 0x00, 0x00,// BB
                 ;0x08, 0x14, 0x22, 0x41, 0x00,// BC
                 ;0x14, 0x14, 0x14, 0x14, 0x14,// BD
                 ;0x00, 0x41, 0x22, 0x14, 0x08,// BE
                 ;0x02, 0x01, 0x51, 0x09, 0x06,// BF
                 ;0x7E, 0x11, 0x11, 0x11, 0x7E,// C0 
                 ;0x7F, 0x49, 0x49, 0x49, 0x31,// C1 
                 ;0x7F, 0x49, 0x49, 0x49, 0x36,// C2 
                 ;0x7F, 0x01, 0x01, 0x01, 0x03,// C3 
                 ;0x60, 0x3E, 0x21, 0x21, 0x7F,// C4 
                 ;0x7F, 0x49, 0x49, 0x49, 0x41,// C5 
                 ;0x77, 0x08, 0x7F, 0x08, 0x77,// C6 
                 ;0x22, 0x41, 0x49, 0x49, 0x36,// C7 
                 ;0x7F, 0x10, 0x08, 0x04, 0x7F,// C8 
                 ;0x7F, 0x10, 0x09, 0x04, 0x7F,// C9 
                 ;0x7F, 0x08, 0x14, 0x22, 0x41,// CA 
                 ;0x40, 0x3E, 0x01, 0x01, 0x7F,// CB 
                 ;0x7F, 0x02, 0x0C, 0x02, 0x7F,// CC 
                 ;0x7F, 0x08, 0x08, 0x08, 0x7F,// CD 
                 ;0x3E, 0x41, 0x41, 0x41, 0x3E,// CE 
                 ;0x7F, 0x01, 0x01, 0x01, 0x7F,// CF 
                 ;0x7F, 0x09, 0x09, 0x09, 0x06,// D0 
                 ;0x3E, 0x41, 0x41, 0x41, 0x22,// D1 
                 ;0x01, 0x01, 0x7F, 0x01, 0x01,// D2 
                 ;0x27, 0x48, 0x48, 0x48, 0x3F,// D3 
                 ;0x1E, 0x21, 0x7F, 0x21, 0x1E,// D4 
                 ;0x63, 0x14, 0x08, 0x14, 0x63,// D5 
                 ;0x3F, 0x20, 0x20, 0x3F, 0x60,// D6 
                 ;0x07, 0x08, 0x08, 0x08, 0x7F,// D7 
                 ;0x7F, 0x40, 0x7F, 0x40, 0x7F,// D8 
                 ;0x3F, 0x20, 0x3F, 0x20, 0x7F,// D9 
                 ;0x01, 0x7F, 0x48, 0x48, 0x30,// DA 
                 ;0x7F, 0x48, 0x30, 0x00, 0x7F,// DB 
                 ;0x00, 0x7F, 0x48, 0x48, 0x30,// DC 
                 ;0x22, 0x41, 0x49, 0x49, 0x3E,// DD 
                 ;0x7F, 0x08, 0x3E, 0x41, 0x3E,// DE 
                 ;0x46, 0x29, 0x19, 0x09, 0x7F // DF 
                 ;};
                 ;/*
                 ;0x20, 0x54, 0x54, 0x54, 0x78,// E0 
                 ;0x3C, 0x4A, 0x4A, 0x4A, 0x30,// E1 
                 ;0x7C, 0x54, 0x54, 0x28, 0x00,// E2 
                 ;0x7C, 0x04, 0x04, 0x04, 0x04,// E3 
                 ;0x60, 0x38, 0x24, 0x24, 0x7C,// E4 
                 ;0x38, 0x54, 0x54, 0x54, 0x18,// E5 
                 ;0x6C, 0x10, 0x7C, 0x10, 0x6C,// E6 
                 ;0x00, 0x44, 0x54, 0x54, 0x28,// E7 
                 ;0x7C, 0x20, 0x10, 0x08, 0x7C,// E8 
                 ;0x7C, 0x21, 0x12, 0x09, 0x7C,// E9 
                 ;0x7C, 0x10, 0x28, 0x44, 0x00,// EA 
                 ;0x40, 0x38, 0x04, 0x04, 0x7C,// EB 
                 ;0x7C, 0x08, 0x10, 0x08, 0x7C,// EC 
                 ;0x7C, 0x10, 0x10, 0x10, 0x7C,// ED 
                 ;0x38, 0x44, 0x44, 0x44, 0x38,// EE 
                 ;0x7C, 0x04, 0x04, 0x04, 0x7C,// EF 
                 ;0x7C, 0x14, 0x14, 0x14, 0x08,// F0 
                 ;0x38, 0x44, 0x44, 0x44, 0x00,// F1 
                 ;0x04, 0x04, 0x7C, 0x04, 0x04,// F2 
                 ;0x0C, 0x50, 0x50, 0x50, 0x3C,// F3 
                 ;0x08, 0x14, 0x7C, 0x14, 0x08,// F4 
                 ;0x44, 0x28, 0x10, 0x28, 0x44,// F5 
                 ;0x3C, 0x20, 0x20, 0x3C, 0x60,// F6 
                 ;0x0C, 0x10, 0x10, 0x10, 0x7C,// F7 
                 ;0x7C, 0x40, 0x7C, 0x40, 0x7C,// F8 
                 ;0x3C, 0x20, 0x3C, 0x20, 0x7C,// F9 
                 ;0x04, 0x7C, 0x50, 0x50, 0x20,// FA 
                 ;0x7C, 0x50, 0x20, 0x00, 0x7C,// FB 
                 ;0x00, 0x7C, 0x50, 0x50, 0x20,// FC 
                 ;0x28, 0x44, 0x54, 0x54, 0x38,// FD 
                 ;0x7C, 0x10, 0x38, 0x44, 0x38,// FE 
                 ;0x48, 0x54, 0x34, 0x14, 0x7C // FF 
                 ;}; */
                 ;
                 ;void LCD_init(void)
                 ; 0000 001C {
                 
                 	.CSEG
                 _LCD_init:
                 ; .FSTART _LCD_init
                 ;  #asm("cli")
000436 94f8      	cli
                 ;  LCD_Sleep(0);
000437 e0a0      	LDI  R26,LOW(0)
000438 d048      	RCALL _LCD_Sleep
                 ;  delay_ms(10);
000439 e0aa      	LDI  R26,LOW(10)
00043a e0b0      	LDI  R27,0
00043b dab0      	RCALL _delay_ms
                 ;  LCD_Commmand(COMAND, SSD1306_SETDISPLAYCLOCKDIV);
00043c d8ae      	RCALL SUBOPT_0x0
00043d eda5      	LDI  R26,LOW(213)
00043e d8af      	RCALL SUBOPT_0x1
                 ;  LCD_Commmand(COMAND, 0x80);
00043f e8a0      	LDI  R26,LOW(128)
000440 d8ad      	RCALL SUBOPT_0x1
                 ;  LCD_Commmand(COMAND, SSD1306_SETMULTIPLEX);
000441 eaa8      	LDI  R26,LOW(168)
000442 d8ab      	RCALL SUBOPT_0x1
                 ;  LCD_Commmand(COMAND, 0x3F);
000443 e3af      	LDI  R26,LOW(63)
000444 d8a9      	RCALL SUBOPT_0x1
                 ;  LCD_Commmand(COMAND, SSD1306_SETDISPLAYOFFSET);
000445 eda3      	LDI  R26,LOW(211)
000446 d8a7      	RCALL SUBOPT_0x1
                 ;  LCD_Commmand(COMAND, 0x00);
000447 e0a0      	LDI  R26,LOW(0)
000448 d8a5      	RCALL SUBOPT_0x1
                 ;  LCD_Commmand(COMAND, SSD1306_SETSTARTLINE | 0x00);
000449 e4a0      	LDI  R26,LOW(64)
00044a d8a3      	RCALL SUBOPT_0x1
                 ;    // We use internal charge pump
                 ;  LCD_Commmand(COMAND, SSD1306_CHARGEPUMP);
00044b e8ad      	LDI  R26,LOW(141)
00044c d8a1      	RCALL SUBOPT_0x1
                 ;  LCD_Commmand(COMAND, 0x14);
00044d e1a4      	LDI  R26,LOW(20)
00044e d89f      	RCALL SUBOPT_0x1
                 ;    // Horizontal memory mode
                 ;  LCD_Commmand(COMAND, SSD1306_MEMORYMODE);
00044f e2a0      	LDI  R26,LOW(32)
000450 d89d      	RCALL SUBOPT_0x1
                 ;  LCD_Commmand(COMAND, 0x00);
000451 e0a0      	LDI  R26,LOW(0)
000452 d89b      	RCALL SUBOPT_0x1
                 ;  LCD_Commmand(COMAND, SSD1306_SEGREMAP | 0x1);
000453 eaa1      	LDI  R26,LOW(161)
000454 d899      	RCALL SUBOPT_0x1
                 ;  LCD_Commmand(COMAND, SSD1306_COMSCANDEC);
000455 eca8      	LDI  R26,LOW(200)
000456 d897      	RCALL SUBOPT_0x1
                 ;  LCD_Commmand(COMAND, SSD1306_SETCOMPINS);
000457 edaa      	LDI  R26,LOW(218)
000458 d895      	RCALL SUBOPT_0x1
                 ;  LCD_Commmand(COMAND, 0x12);
000459 e1a2      	LDI  R26,LOW(18)
00045a d893      	RCALL SUBOPT_0x1
                 ;    // Max contrast
                 ;  LCD_Commmand(COMAND, SSD1306_SETCONTRAST);
00045b e8a1      	LDI  R26,LOW(129)
00045c d891      	RCALL SUBOPT_0x1
                 ;  LCD_Commmand(COMAND, 0xCF);
00045d ecaf      	LDI  R26,LOW(207)
00045e d88f      	RCALL SUBOPT_0x1
                 ;  LCD_Commmand(COMAND, SSD1306_SETPRECHARGE);
00045f eda9      	LDI  R26,LOW(217)
000460 d88d      	RCALL SUBOPT_0x1
                 ;  LCD_Commmand(COMAND, 0xF1);
000461 efa1      	LDI  R26,LOW(241)
000462 d88b      	RCALL SUBOPT_0x1
                 ;  LCD_Commmand(COMAND, SSD1306_SETVCOMDETECT);
000463 edab      	LDI  R26,LOW(219)
000464 d889      	RCALL SUBOPT_0x1
                 ;  LCD_Commmand(COMAND, 0x40);
000465 e4a0      	LDI  R26,LOW(64)
000466 d887      	RCALL SUBOPT_0x1
                 ;  LCD_Commmand(COMAND, SSD1306_DISPLAYALLON_RESUME);
000467 eaa4      	LDI  R26,LOW(164)
000468 d026      	RCALL _LCD_Commmand
                 ;    // Non-inverted display
                 ;  LCD_Mode(0);
000469 e0a0      	LDI  R26,LOW(0)
00046a d008      	RCALL _LCD_Mode
                 ;    // Turn display back on
                 ;  LCD_Sleep(1);
00046b e0a1      	LDI  R26,LOW(1)
00046c d014      	RCALL _LCD_Sleep
                 ;
                 ;  LCD_Clear();
00046d d042      	RCALL _LCD_Clear
                 ;  LCD_Goto(0,0);
00046e d87c      	RCALL SUBOPT_0x0
00046f e0a0      	LDI  R26,LOW(0)
000470 d02a      	RCALL _LCD_Goto
                 ;  #asm("sei")
000471 9478      	sei
                 ;}
000472 9508      	RET
                 ; .FEND
                 ;
                 ;/*
                 ;void LCD_Contrast(char set_contrast)
                 ;{
                 ;  LCD_Commmand(COMAND, SSD1306_DISPLAYOFF);
                 ;  delay_ms(10);
                 ;  LCD_Commmand(COMAND, SSD1306_SETCONTRAST);
                 ;  LCD_Commmand(COMAND, set_contrast);
                 ;  LCD_Commmand(COMAND, SSD1306_DISPLAYON);
                 ;}
                 ;*/
                 ;void LCD_Mode(char set_mode)
                 ;{
                 _LCD_Mode:
                 ; .FSTART _LCD_Mode
                 ; if(set_mode==0){ LCD_Commmand(COMAND, SSD1306_NORMALDISPLAY); }
000473 93aa      	ST   -Y,R26
                 ;	set_mode -> Y+0
000474 81e8      	LD   R30,Y
000475 30e0      	CPI  R30,0
000476 f419      	BRNE _0x3
000477 d873      	RCALL SUBOPT_0x0
000478 eaa6      	LDI  R26,LOW(166)
000479 d015      	RCALL _LCD_Commmand
                 ; if(set_mode==1){ LCD_Commmand(COMAND, SSD1306_INVERTDISPLAY); }
                 _0x3:
00047a 81a8      	LD   R26,Y
00047b 30a1      	CPI  R26,LOW(0x1)
00047c f419      	BRNE _0x4
00047d d86d      	RCALL SUBOPT_0x0
00047e eaa7      	LDI  R26,LOW(167)
00047f d00f      	RCALL _LCD_Commmand
                 ;}
                 _0x4:
000480 c104      	RJMP _0x2060002
                 ; .FEND
                 ;
                 ;void LCD_Sleep(char set)
                 ;{
                 _LCD_Sleep:
                 ; .FSTART _LCD_Sleep
                 ;  if(set==0){LCD_Commmand(COMAND,SSD1306_DISPLAYOFF);}
000481 93aa      	ST   -Y,R26
                 ;	set -> Y+0
000482 81e8      	LD   R30,Y
000483 30e0      	CPI  R30,0
000484 f419      	BRNE _0x5
000485 d865      	RCALL SUBOPT_0x0
000486 eaae      	LDI  R26,LOW(174)
000487 d007      	RCALL _LCD_Commmand
                 ;  if(set==1){LCD_Commmand(COMAND,SSD1306_DISPLAYON);}
                 _0x5:
000488 81a8      	LD   R26,Y
000489 30a1      	CPI  R26,LOW(0x1)
00048a f419      	BRNE _0x6
00048b d85f      	RCALL SUBOPT_0x0
00048c eaaf      	LDI  R26,LOW(175)
00048d d001      	RCALL _LCD_Commmand
                 ;}
                 _0x6:
00048e c0f6      	RJMP _0x2060002
                 ; .FEND
                 ;
                 ;void LCD_Commmand(unsigned char ControByte, unsigned char DataByte)
                 ;{
                 _LCD_Commmand:
                 ; .FSTART _LCD_Commmand
                 ;  #asm("cli")
00048f 93aa      	ST   -Y,R26
                 ;	ControByte -> Y+1
                 ;	DataByte -> Y+0
000490 94f8      	cli
                 ;  i2c_start();
000491 da0e      	RCALL _i2c_start
                 ;  i2c_write(SSD1306_I2C_ADDRESS);
000492 e7a8      	LDI  R26,LOW(120)
000493 da40      	RCALL _i2c_write
                 ;  i2c_write(ControByte);
000494 81a9      	LDD  R26,Y+1
000495 da3e      	RCALL _i2c_write
                 ;  i2c_write(DataByte);
000496 81a8      	LD   R26,Y
000497 da3c      	RCALL _i2c_write
                 ;  i2c_stop();
000498 da16      	RCALL _i2c_stop
                 ;  #asm("sei")
000499 9478      	sei
00049a c013      	RJMP _0x2060003
                 ;}
                 ; .FEND
                 ;
                 ;void LCD_Goto(unsigned char x, unsigned char y)
                 ;{
                 _LCD_Goto:
                 ; .FSTART _LCD_Goto
                 ;  #asm("cli")
00049b 93aa      	ST   -Y,R26
                 ;	x -> Y+1
                 ;	y -> Y+0
00049c 94f8      	cli
                 ;	LCD_X = x;
00049d 8059      	LDD  R5,Y+1
                 ;	LCD_Y = y;
00049e 8048      	LDD  R4,Y+0
                 ;
                 ;	//    
                 ;	LCD_Commmand(COMAND, 0xB0 + y);//   
00049f d84b      	RCALL SUBOPT_0x0
0004a0 81a9      	LDD  R26,Y+1
0004a1 55a0      	SUBI R26,-LOW(176)
0004a2 d84b      	RCALL SUBOPT_0x1
                 ;	LCD_Commmand(COMAND, x & 0xf);//   
0004a3 81ea      	LDD  R30,Y+2
0004a4 70ef      	ANDI R30,LOW(0xF)
0004a5 2fae      	MOV  R26,R30
0004a6 d847      	RCALL SUBOPT_0x1
                 ;	LCD_Commmand(COMAND,0x10 | (x >> 4));//   
0004a7 81ea      	LDD  R30,Y+2
0004a8 95e2      	SWAP R30
0004a9 70ef      	ANDI R30,0xF
0004aa 61e0      	ORI  R30,0x10
0004ab 2fae      	MOV  R26,R30
0004ac dfe2      	RCALL _LCD_Commmand
                 ;  #asm("sei")
0004ad 9478      	sei
                 _0x2060003:
                 ;}
0004ae 9622      	ADIW R28,2
0004af 9508      	RET
                 ; .FEND
                 ;
                 ;void LCD_Clear(void)
                 ;{
                 _LCD_Clear:
                 ; .FSTART _LCD_Clear
                 ;	unsigned short i;
                 ;	unsigned short x=0;
                 ;	unsigned short y=0;
                 ;    #asm("cli")
0004b0 db20      	RCALL __SAVELOCR6
                 ;	i -> R16,R17
                 ;	x -> R18,R19
                 ;	y -> R20,R21
                +
0004b1 e020     +LDI R18 , LOW ( 0 )
0004b2 e030     +LDI R19 , HIGH ( 0 )
                 	__GETWRN 18,19,0
                +
0004b3 e040     +LDI R20 , LOW ( 0 )
0004b4 e050     +LDI R21 , HIGH ( 0 )
                 	__GETWRN 20,21,0
0004b5 94f8      	cli
                 ;	LCD_Goto(0,0);
0004b6 d834      	RCALL SUBOPT_0x0
0004b7 e0a0      	LDI  R26,LOW(0)
0004b8 dfe2      	RCALL _LCD_Goto
                 ;
                 ;	for (i=0; i<(SSD1306_LCDWIDTH*SSD1306_LCDHEIGHT/8); i++) //(SSD1306_LCDWIDTH*SSD1306_LCDHEIGHT/8)
                +
0004b9 e000     +LDI R16 , LOW ( 0 )
0004ba e010     +LDI R17 , HIGH ( 0 )
                 	__GETWRN 16,17,0
                 _0x8:
                +
0004bb 3e08     +CPI R16 , LOW ( 1000 )
0004bc e0e3     +LDI R30 , HIGH ( 1000 )
0004bd 071e     +CPC R17 , R30
                 	__CPWRN 16,17,1000
0004be f4a8      	BRSH _0x9
                 ;	{
                 ;		LCD_CharVeryBig(' ',0);
0004bf e2e0      	LDI  R30,LOW(32)
0004c0 e0f0      	LDI  R31,HIGH(32)
0004c1 d82e      	RCALL SUBOPT_0x2
0004c2 e0a0      	LDI  R26,LOW(0)
0004c3 d027      	RCALL _LCD_CharVeryBig
                 ;		x ++;
                +
0004c4 5f2f     +SUBI R18 , LOW ( - 1 )
0004c5 4f3f     +SBCI R19 , HIGH ( - 1 )
                 	__ADDWRN 18,19,1
                 ;		if(x>SSD1306_LCDWIDTH)
                +
0004c6 372e     +CPI R18 , LOW ( 126 )
0004c7 e0e0     +LDI R30 , HIGH ( 126 )
0004c8 073e     +CPC R19 , R30
                 	__CPWRN 18,19,126
0004c9 f038      	BRLO _0xA
                 ;		{
                 ;			x =0;
                +
0004ca e020     +LDI R18 , LOW ( 0 )
0004cb e030     +LDI R19 , HIGH ( 0 )
                 	__GETWRN 18,19,0
                 ;			y++;
                +
0004cc 5f4f     +SUBI R20 , LOW ( - 1 )
0004cd 4f5f     +SBCI R21 , HIGH ( - 1 )
                 	__ADDWRN 20,21,1
                 ;			LCD_Goto(0,y);
0004ce d81c      	RCALL SUBOPT_0x0
0004cf 2fa4      	MOV  R26,R20
0004d0 dfca      	RCALL _LCD_Goto
                 ;		}
                 ;	}
                 _0xA:
                +
0004d1 5f0f     +SUBI R16 , LOW ( - 1 )
0004d2 4f1f     +SBCI R17 , HIGH ( - 1 )
                 	__ADDWRN 16,17,1
0004d3 cfe7      	RJMP _0x8
                 _0x9:
                 ;	LCD_X =SSD1306_DEFAULT_SPACE;
0004d4 e0e5      	LDI  R30,LOW(5)
0004d5 2e5e      	MOV  R5,R30
                 ;	LCD_Y =0;
0004d6 2444      	CLR  R4
                 ;    #asm("sei");
0004d7 9478      	sei
                 ;}
0004d8 daff      	RCALL __LOADLOCR6
0004d9 9626      	ADIW R28,6
0004da 9508      	RET
                 ; .FEND
                 ;void LCD_Blinc(unsigned int t,unsigned char x )
                 ;{
                 _LCD_Blinc:
                 ; .FSTART _LCD_Blinc
                 ;  unsigned char xx = 0;
                 ;   for (xx=0; xx<x; xx++)
0004db 93aa      	ST   -Y,R26
0004dc 931a      	ST   -Y,R17
                 ;	t -> Y+2
                 ;	x -> Y+1
                 ;	xx -> R17
0004dd e010      	LDI  R17,0
0004de e010      	LDI  R17,LOW(0)
                 _0xC:
0004df 81e9      	LDD  R30,Y+1
0004e0 171e      	CP   R17,R30
0004e1 f430      	BRSH _0xD
                 ;	{
                 ;       LCD_Mode(1);
0004e2 e0a1      	LDI  R26,LOW(1)
0004e3 d80f      	RCALL SUBOPT_0x3
                 ;       delay_ms(t);
                 ;       LCD_Mode(0);
0004e4 e0a0      	LDI  R26,LOW(0)
0004e5 d80d      	RCALL SUBOPT_0x3
                 ;       delay_ms(t);
                 ;    }
0004e6 5f1f      	SUBI R17,-1
0004e7 cff7      	RJMP _0xC
                 _0xD:
                 ;}
0004e8 8118      	LDD  R17,Y+0
0004e9 9624      	ADIW R28,4
0004ea 9508      	RET
                 ; .FEND
                 ;
                 ;void LCD_CharVeryBig(unsigned int c,unsigned char h)
                 ;{
                 _LCD_CharVeryBig:
                 ; .FSTART _LCD_CharVeryBig
                 ;  unsigned char x  = 0;
                 ;  unsigned int  m  = 0;
                 ;  unsigned char cl = 0;
                 ;  #asm("cli")
0004eb 93aa      	ST   -Y,R26
0004ec dae6      	RCALL __SAVELOCR4
                 ;	c -> Y+5
                 ;	h -> Y+4
                 ;	x -> R17
                 ;	m -> R18,R19
                 ;	cl -> R16
0004ed e010      	LDI  R17,0
                +
0004ee e020     +LDI R18 , LOW ( 0 )
0004ef e030     +LDI R19 , HIGH ( 0 )
                 	__GETWRN 18,19,0
0004f0 e000      	LDI  R16,0
0004f1 94f8      	cli
                 ;  i2c_start();
0004f2 d9ad      	RCALL _i2c_start
                 ;  i2c_write(SSD1306_I2C_ADDRESS);
0004f3 e7a8      	LDI  R26,LOW(120)
0004f4 d9df      	RCALL _i2c_write
                 ;  i2c_write(DATA);//data mode
0004f5 e4a0      	LDI  R26,LOW(64)
0004f6 d9dd      	RCALL _i2c_write
                 ;  for (x=0; x<5; x++)
0004f7 e010      	LDI  R17,LOW(0)
                 _0xF:
0004f8 3015      	CPI  R17,5
0004f9 f008      	BRLO PC+2
0004fa c047      	RJMP _0x10
                 ;	{
                 ;    //0x27, 0x48, 0x48, 0x48, 0x3F,// D3 
                 ;
                 ;         m = LCD_Buffer[c*5+x];
0004fb 81ad      	LDD  R26,Y+5
0004fc 81be      	LDD  R27,Y+5+1
0004fd e0e5      	LDI  R30,LOW(5)
0004fe da3e      	RCALL __MULB1W2U
0004ff 01df      	MOVW R26,R30
000500 2fe1      	MOV  R30,R17
000501 e0f0      	LDI  R31,0
000502 0fea      	ADD  R30,R26
000503 1ffb      	ADC  R31,R27
000504 5dea      	SUBI R30,LOW(-_LCD_Buffer*2)
000505 4fff      	SBCI R31,HIGH(-_LCD_Buffer*2)
000506 9124      	LPM  R18,Z
000507 2733      	CLR  R19
                 ;         cl=m;
000508 2f02      	MOV  R16,R18
                 ;         if(h==1)
000509 81ac      	LDD  R26,Y+4
00050a 30a1      	CPI  R26,LOW(0x1)
00050b f181      	BREQ _0x110
                 ;         {
                 ;         i2c_write(cl);
                 ;         }
                 ;         else
                 ;         if(h==2)
00050c 30a2      	CPI  R26,LOW(0x2)
00050d f4b1      	BRNE _0x13
                 ;         {
                 ;             cl = 0;
00050e e000      	LDI  R16,LOW(0)
                 ;             if (0b00000001 == (m & 0b00000001)) { cl =cl+0b00000011;};
00050f 01f9      	MOVW R30,R18
000510 70e1      	ANDI R30,LOW(0x1)
000511 30e1      	CPI  R30,LOW(0x1)
000512 f409      	BRNE _0x14
000513 5f0d      	SUBI R16,-LOW(3)
                 _0x14:
                 ;             if (0b00000010 == (m & 0b00000010)) { cl =cl+0b00001100;};
000514 01f9      	MOVW R30,R18
000515 70e2      	ANDI R30,LOW(0x2)
000516 30e2      	CPI  R30,LOW(0x2)
000517 f409      	BRNE _0x15
000518 5f04      	SUBI R16,-LOW(12)
                 _0x15:
                 ;             if (0b00000100 == (m & 0b00000100)) { cl =cl+0b00110000;};
000519 01f9      	MOVW R30,R18
00051a 70e4      	ANDI R30,LOW(0x4)
00051b 30e4      	CPI  R30,LOW(0x4)
00051c f409      	BRNE _0x16
00051d 5d00      	SUBI R16,-LOW(48)
                 _0x16:
                 ;             if (0b00001000 == (m & 0b00001000)) { cl =cl+0b11000000;};
00051e 01f9      	MOVW R30,R18
00051f 70e8      	ANDI R30,LOW(0x8)
000520 30e8      	CPI  R30,LOW(0x8)
000521 f409      	BRNE _0x17
000522 5400      	SUBI R16,-LOW(192)
                 _0x17:
                 ;         i2c_write(cl);
000523 c018      	RJMP _0x110
                 ;         }
                 ;         else if(h==3)
                 _0x13:
000524 81ac      	LDD  R26,Y+4
000525 30a3      	CPI  R26,LOW(0x3)
000526 f4b9      	BRNE _0x19
                 ;         {
                 ;             cl = 0;
000527 e000      	LDI  R16,LOW(0)
                 ;             if (0b00010000 == (m & 0b00010000)) { cl =cl+0b00000011;};
000528 01f9      	MOVW R30,R18
000529 71e0      	ANDI R30,LOW(0x10)
00052a 31e0      	CPI  R30,LOW(0x10)
00052b f409      	BRNE _0x1A
00052c 5f0d      	SUBI R16,-LOW(3)
                 _0x1A:
                 ;             if (0b00100000 == (m & 0b00100000)) { cl =cl+0b00001100;};
00052d 01f9      	MOVW R30,R18
00052e 72e0      	ANDI R30,LOW(0x20)
00052f 32e0      	CPI  R30,LOW(0x20)
000530 f409      	BRNE _0x1B
000531 5f04      	SUBI R16,-LOW(12)
                 _0x1B:
                 ;             if (0b01000000 == (m & 0b01000000)) { cl =cl+0b00110000;};
000532 01f9      	MOVW R30,R18
000533 74e0      	ANDI R30,LOW(0x40)
000534 34e0      	CPI  R30,LOW(0x40)
000535 f409      	BRNE _0x1C
000536 5d00      	SUBI R16,-LOW(48)
                 _0x1C:
                 ;             if (0b10000000 == (m & 0b10000000)) { cl =cl+0b11000000;};
000537 01f9      	MOVW R30,R18
000538 78e0      	ANDI R30,LOW(0x80)
000539 38e0      	CPI  R30,LOW(0x80)
00053a f409      	BRNE _0x1D
00053b 5400      	SUBI R16,-LOW(192)
                 _0x1D:
                 ;         i2c_write(cl);
                 _0x110:
00053c 2fa0      	MOV  R26,R16
00053d d996      	RCALL _i2c_write
                 ;         }
                 ;         i2c_write(cl);
                 _0x19:
00053e 2fa0      	MOV  R26,R16
00053f d994      	RCALL _i2c_write
                 ;    }
000540 5f1f      	SUBI R17,-1
000541 cfb6      	RJMP _0xF
                 _0x10:
                 ;
                 ;    i2c_write(0x00);  //  1   
000542 e0a0      	LDI  R26,LOW(0)
000543 d990      	RCALL _i2c_write
                 ;//    i2c_write(0x00);  //  1   
                 ;    i2c_stop();    // stop transmitting
000544 d96a      	RCALL _i2c_stop
                 ;	if(h==0){
000545 81ec      	LDD  R30,Y+4
000546 30e0      	CPI  R30,0
000547 f411      	BRNE _0x1E
                 ;        LCD_X += 6;
000548 e0e6      	LDI  R30,LOW(6)
000549 c001      	RJMP _0x111
                 ;    }
                 ; 	else{
                 _0x1E:
                 ;        LCD_X += 12;
00054a e0ec      	LDI  R30,LOW(12)
                 _0x111:
00054b 0e5e      	ADD  R5,R30
                 ;    }
                 ;  #asm("sei")
00054c 9478      	sei
                 ;}
00054d da8c      	RCALL __LOADLOCR4
00054e 9627      	ADIW R28,7
00054f 9508      	RET
                 ; .FEND
                 ;
                 ;void LCD_Printf(unsigned char* buf, unsigned char size) //   
                 ;{
                 _LCD_Printf:
                 ; .FSTART _LCD_Printf
                 ;
                 ;        while ((*buf!=0)&&(LCD_X<SSD1306_LCDWIDTH))
000550 93aa      	ST   -Y,R26
                 ;	*buf -> Y+1
                 ;	size -> Y+0
                 _0x20:
000551 81a9      	LDD  R26,Y+1
000552 81ba      	LDD  R27,Y+1+1
000553 91ac      	LD   R26,X
000554 30a0      	CPI  R26,LOW(0x0)
000555 f019      	BREQ _0x23
000556 e7ed      	LDI  R30,LOW(125)
000557 165e      	CP   R5,R30
000558 f008      	BRLO _0x24
                 _0x23:
000559 c00a      	RJMP _0x22
                 _0x24:
                 ;        {
                 ;           // if((LCD_X>SSD1306_LCDWIDTH)||(LCD_X<5)){LCD_X=SSD1306_DEFAULT_SPACE;}
                 ;            LCD_CharVeryBig(*buf++,size);
00055a 81a9      	LDD  R26,Y+1
00055b 81ba      	LDD  R27,Y+1+1
00055c 91ed      	LD   R30,X+
00055d 83a9      	STD  Y+1,R26
00055e 83ba      	STD  Y+1+1,R27
00055f e0f0      	LDI  R31,0
000560 d78f      	RCALL SUBOPT_0x2
000561 81aa      	LDD  R26,Y+2
000562 df88      	RCALL _LCD_CharVeryBig
                 ;        }
000563 cfed      	RJMP _0x20
                 _0x22:
                 ;
                 ;}
000564 9623      	ADIW R28,3
000565 9508      	RET
                 ; .FEND
                 ;
                 ;//+++++++++++++++++++++++++++++++++++++++++++++++++++++++++++++++++++++++++++++++++++++++++++++++++++++++
                 ;void ShowLine(unsigned char line)
                 ;{
                 _ShowLine:
                 ; .FSTART _ShowLine
                 ;    LCD_Goto(0,line);
000566 93aa      	ST   -Y,R26
                 ;	line -> Y+0
000567 d783      	RCALL SUBOPT_0x0
000568 d78e      	RCALL SUBOPT_0x4
                 ;    LCD_Printf(buff,0);  //    
000569 e0a0      	LDI  R26,LOW(0)
00056a dfe5      	RCALL _LCD_Printf
                 ;}
00056b c019      	RJMP _0x2060002
                 ; .FEND
                 ;//+++++++++++++++++++++++++++++++++++++++++++++++++++++++++++++++++++++++++++++++++++++++++++++++++++++++
                 ;void ShowBigLine(unsigned char line)
                 ;{
                 _ShowBigLine:
                 ; .FSTART _ShowBigLine
                 ;    LCD_Goto(0,line);
00056c 93aa      	ST   -Y,R26
                 ;	line -> Y+0
00056d d77d      	RCALL SUBOPT_0x0
00056e d788      	RCALL SUBOPT_0x4
                 ;    LCD_Printf(buff,2);  //    
00056f e0a2      	LDI  R26,LOW(2)
000570 dfdf      	RCALL _LCD_Printf
                 ;    LCD_Goto(0,line+1);
000571 d779      	RCALL SUBOPT_0x0
000572 81a9      	LDD  R26,Y+1
000573 5faf      	SUBI R26,-LOW(1)
000574 d787      	RCALL SUBOPT_0x5
                 ;    LCD_Printf(buff,3);  //    
000575 e0a3      	LDI  R26,LOW(3)
000576 dfd9      	RCALL _LCD_Printf
                 ;}
000577 c00d      	RJMP _0x2060002
                 ; .FEND
                 ;
                 ;
                 ;
                 ;
                 ;
                 ;
                 ;
                 ;
                 ;// Voltage Reference: Int., cap. on AREF
                 ;#define ADC_VREF_TYPE ((1<<REFS1) | (1<<REFS0) | (0<<ADLAR))
                 ;
                 ;//#define PWR_LCD             PORTD.4
                 ;#define STARTER_REL         PORTB.0
                 ;
                 ;#define GEN_REL             PORTD.2
                 ;#define LINE_REL            PORTD.3
                 ;#define ON_REL              PORTD.4
                 ;#define OFF_REL             PORTD.5
                 ;#define VALVE_U_REL         PORTD.6
                 ;#define VALVE_D_REL         PORTD.7
                 ;
                 ;#define ROTOR_PIN           PINC.4
                 ;#define GEN_OUT_PIN         PIND.0
                 ;
                 ;
                 ;#define KEY_E               PINB.4
                 ;#define KEY_U               PINB.3
                 ;#define KEY_D               PINB.2
                 ;#define KEY_SIG_NUM         10
                 ;#define GO_TO_OPTIONS       20
                 ;#define INFOLINE1           6
                 ;#define INFOLINE2           7
                 ;#define LAST_MODE_MENU      3
                 ;#define FIRST_OPTION_MENU   10      //
                 ;#define LAST_OPTION_MENU    16      //
                 ;
                 ;#define U1_MIN              140      //
                 ;#define U1_MAX              265      //
                 ;
                 ;#define ONE_SECOND          4000    //
                 ;#define HALF_SECOND         2000    //
                 ;#define QUARTER_SECOND      1000    //
                 ;#define NEXT_ZAPUSK_SECOND  20000   // 5c
                 ;
                 ;#define RAZGON              5       // 5c
                 ;#define PODSVETKA           60
                 ;
                 ;// Global variables
                 ;eeprom unsigned char Termo[256]=            // +50C
                 ;{175,170,155,145,135,130,125,120,117,115,
                 ; 112,110,107,105,104,102,100, 99, 98, 96,
                 ;  95, 94, 93, 91, 90, 89, 88, 87, 86, 85,
                 ;  84, 84, 83, 82, 82, 81, 80, 80, 79, 78,
                 ;  78, 77, 77, 76, 76, 75, 75, 74, 74, 73,
                 ;  72, 72, 71, 71, 70, 70, 69, 69, 68, 68,
                 ;  68, 67, 67, 67, 66, 66, 65, 65, 65, 64,
                 ;  64, 64, 63, 63, 63, 62, 62, 62, 61, 61,
                 ;  61, 60, 60, 60, 60, 59, 59, 59, 58, 58,
                 ;  58, 58, 57, 57, 57, 56, 56, 56, 55, 55,
                 ;  55, 55, 55, 54, 54, 54, 54, 53, 53, 53,
                 ;  53, 53, 52, 52, 52, 52, 51, 51, 51, 51,
                 ;  50, 50, 50, 50, 49, 49, 49, 49, 49, 49,
                 ;  48, 48, 48, 48, 48, 47, 47, 47, 47, 47,
                 ;  47, 46, 46, 46, 46, 46, 45, 45, 45, 45,
                 ;  45, 44, 44, 44, 44, 44, 44, 43, 43, 43,
                 ;  43, 43, 43, 43, 42, 42, 42, 42, 42, 41,
                 ;  41, 41, 41, 41, 41, 40, 40, 40, 40 ,40,
                 ;  40, 39, 39, 39, 39, 39, 39, 39, 38, 38,
                 ;  38, 38, 38, 38, 38, 37, 37, 37, 37, 37,
                 ;  37, 37, 36, 36, 36, 36, 36, 35, 35, 35,
                 ;  35, 35, 35, 35, 34, 34, 34, 34, 34, 34,
                 ;  34, 33, 33, 33, 33, 33, 33, 33, 33, 32,
                 ;  32, 32, 32, 32, 32, 32, 31, 31, 31, 31,
                 ;  31, 31, 31, 30, 30, 30, 30, 30, 30, 30,
                 ;  30, 29, 29, 29, 20, 20};
                 ;//                                                                                                   !
                 ;eeprom unsigned char typeEEP = 0;           //                                         -
                 ;eeprom unsigned char t1EEP   =10;           //                                    -
                 ;eeprom unsigned char t2EEP   =10;           //                                       -
                 ;eeprom unsigned char t3EEP   = 6;           //                                         -
                 ;eeprom unsigned char t4EEP   = 8;           //                                      V
                 ;eeprom unsigned char t5EEP   = 5;           //     (   )          V
                 ;                                            //  -  2      
                 ;//eeprom unsigned char t6EEP =10;           //  
                 ;
                 ;eeprom unsigned char TminZEEP=20;           //      
                 ;eeprom unsigned char TminNEEP=50;           //                   -
                 ;eeprom unsigned char Z_EEP   = 0;           // zaslonka/klapan                                          V
                 ;eeprom unsigned char R_EEP   = 0;           //   " "                       V
                 ;eeprom unsigned char KilkistZapuskiv_EEP=3; //                                  V
                 ;
                 ;eeprom unsigned int  NarabotkaEEP=0;
                 ;eeprom unsigned char TO_EEP=1;           //TO  1    ,    
                 ;
                 ;
                 ;static unsigned char type,t1,t2,t3,t4,t5,TminZ,TminN,KilkistZapuskiv;//,Narabotka,;
                 ;static unsigned char AvtRu=0;               //0-Auto; 1-Ru4noy
                 ;static bit z=0;
                 ;static bit r=0;
                 ;//static bit rbit=0;
                 ;static bit TO_output=0;
                 ;
                 ;static unsigned char up,down,enter;
                 ;static unsigned char PositionPointer = 1;
                 
                 	.DSEG
                 ;static bit podmenu=0;
                 ;
                 ;static unsigned char podsvet=60; //sec
                 ;static unsigned int  U_Bat=0;
                 ;static unsigned int U1;
                 ;static int T;
                 ;
                 ;static unsigned char rotor= 0;
                 ;//static unsigned char average_ADC_counter=0;
                 ;static unsigned int interrapt_counter=0;
                 ;static unsigned char second_counter=0;
                 ;static unsigned int  minut_counter=0;
                 ;
                 ;unsigned int  U_Bat_ADC=0;
                 ;unsigned int  T_ADC=0;
                 ;unsigned int  U1_ADC=0;
                 ;
                 ;static unsigned int temp;
                 ;
                 ;
                 ;//char buff[30];  // 
                 ;
                 ;//+++++++++++++++++++++++++++++++++++++++++++++++++++++++++++++++++++++++++++++++++++++++++++++++++++++++
                 ;// Read the AD conversion result
                 ;unsigned int read_adc(unsigned char adc_input)
                 ; 0000 0097 {
                 
                 	.CSEG
                 _read_adc:
                 ; .FSTART _read_adc
                 ; 0000 0098 ADMUX=adc_input | ADC_VREF_TYPE;
000578 93aa      	ST   -Y,R26
                 ;	adc_input -> Y+0
000579 81e8      	LD   R30,Y
00057a 6ce0      	ORI  R30,LOW(0xC0)
00057b b9e7      	OUT  0x7,R30
                 ; 0000 0099 // Delay needed for the stabilization of the ADC input voltage
                 ; 0000 009A delay_us(10);
                +
00057c e087     +LDI R24 , LOW ( 7 )
                +__DELAY_USB_LOOP :
00057d 958a     +DEC R24
00057e f7f1     +BRNE __DELAY_USB_LOOP
                 	__DELAY_USB 7
                 ; 0000 009B // Start the AD conversion
                 ; 0000 009C ADCSRA|=(1<<ADSC);
00057f 9a36      	SBI  0x6,6
                 ; 0000 009D // Wait for the AD conversion to complete
                 ; 0000 009E while ((ADCSRA & (1<<ADIF))==0);
                 _0x27:
000580 9b34      	SBIS 0x6,4
000581 cffe      	RJMP _0x27
                 ; 0000 009F ADCSRA|=(1<<ADIF);
000582 9a34      	SBI  0x6,4
                 ; 0000 00A0 return ADCW;
000583 b1e4      	IN   R30,0x4
000584 b1f5      	IN   R31,0x4+1
                 _0x2060002:
000585 9621      	ADIW R28,1
000586 9508      	RET
                 ; 0000 00A1 }
                 ; .FEND
                 ;//+++++++++++++++++++++++++++++++++++++++++++++++++++++++++++++++++++++++++++++++++++++++++++++++++++++++
                 ;
                 ;//+++++++++++++++++++++++++++++++++++++++++++++++++++++++++++++++++++++++++++++++++++++++++++++++++++++++
                 ;void UpDownEnterKey()       //  !!!
                 ; 0000 00A6 {
                 _UpDownEnterKey:
                 ; .FSTART _UpDownEnterKey
                 ; 0000 00A7  //Main menu
                 ; 0000 00A8  if((PositionPointer>=1)&(PositionPointer<=LAST_MODE_MENU))
000587 d778      	RCALL SUBOPT_0x6
000588 e0e1      	LDI  R30,LOW(1)
000589 d995      	RCALL __GEB12U
00058a 2e0e      	MOV  R0,R30
00058b d774      	RCALL SUBOPT_0x6
00058c e0e3      	LDI  R30,LOW(3)
00058d d98c      	RCALL __LEB12U
00058e 21e0      	AND  R30,R0
00058f f119      	BREQ _0x2A
                 ; 0000 00A9  {
                 ; 0000 00AA     if((up==1)|(up>KEY_SIG_NUM)){PositionPointer++;up=2;};
000590 d772      	RCALL SUBOPT_0x7
000591 d774      	RCALL SUBOPT_0x8
000592 d777      	RCALL SUBOPT_0x9
000593 f011      	BREQ _0x2B
000594 d77a      	RCALL SUBOPT_0xA
000595 d77c      	RCALL SUBOPT_0xB
                 _0x2B:
                 ; 0000 00AB     if((down==1)|(down>KEY_SIG_NUM)){PositionPointer--;down=2;};
000596 d782      	RCALL SUBOPT_0xC
000597 d76e      	RCALL SUBOPT_0x8
000598 d783      	RCALL SUBOPT_0xD
000599 f009      	BREQ _0x2C
00059a d786      	RCALL SUBOPT_0xE
                 _0x2C:
                 ; 0000 00AC 
                 ; 0000 00AD     if(PositionPointer>LAST_MODE_MENU){PositionPointer=LAST_MODE_MENU;} //limits of Main menu
00059b d764      	RCALL SUBOPT_0x6
00059c 30a4      	CPI  R26,LOW(0x4)
00059d f008      	BRLO _0x2D
00059e d78a      	RCALL SUBOPT_0xF
                 ; 0000 00AE     if(PositionPointer<1){PositionPointer=1;}
                 _0x2D:
00059f d760      	RCALL SUBOPT_0x6
0005a0 30a1      	CPI  R26,LOW(0x1)
0005a1 f410      	BRSH _0x2E
0005a2 e0e1      	LDI  R30,LOW(1)
0005a3 d789      	RCALL SUBOPT_0x10
                 ; 0000 00AF     // Go to Options menu
                 ; 0000 00B0     if((enter>GO_TO_OPTIONS)&(PositionPointer==LAST_MODE_MENU)){PositionPointer=FIRST_OPTION_MENU;enter=2;LCD_Clear();Ki ...
                 _0x2E:
0005a4 d78b      	RCALL SUBOPT_0x11
0005a5 e0e3      	LDI  R30,LOW(3)
0005a6 d78f      	RCALL SUBOPT_0x12
0005a7 f021      	BREQ _0x2F
0005a8 e0ea      	LDI  R30,LOW(10)
0005a9 d78f      	RCALL SUBOPT_0x13
0005aa df05      	RCALL _LCD_Clear
0005ab d792      	RCALL SUBOPT_0x14
                 _0x2F:
                 ; 0000 00B1     if((enter>GO_TO_OPTIONS)&(PositionPointer==2)){PositionPointer=30;enter=2;KilkistZapuskiv=KilkistZapuskiv_EEP;}; // ...
0005ac d783      	RCALL SUBOPT_0x11
0005ad e0e2      	LDI  R30,LOW(2)
0005ae d787      	RCALL SUBOPT_0x12
0005af f019      	BREQ _0x30
0005b0 e1ee      	LDI  R30,LOW(30)
0005b1 d787      	RCALL SUBOPT_0x13
0005b2 d78b      	RCALL SUBOPT_0x14
                 _0x30:
                 ; 0000 00B2 
                 ; 0000 00B3   }
                 ; 0000 00B4   if((PositionPointer>=FIRST_OPTION_MENU)&(PositionPointer<=LAST_OPTION_MENU))
                 _0x2A:
0005b3 d74c      	RCALL SUBOPT_0x6
0005b4 e0ea      	LDI  R30,LOW(10)
0005b5 d969      	RCALL __GEB12U
0005b6 2e0e      	MOV  R0,R30
0005b7 d748      	RCALL SUBOPT_0x6
0005b8 e1e0      	LDI  R30,LOW(16)
0005b9 d960      	RCALL __LEB12U
0005ba 21e0      	AND  R30,R0
0005bb f409      	BRNE PC+2
0005bc c05e      	RJMP _0x31
                 ; 0000 00B5   {
                 ; 0000 00B6         if(podmenu == 0)
0005bd fc23      	SBRC R2,3
0005be c009      	RJMP _0x32
                 ; 0000 00B7         {
                 ; 0000 00B8             if((up==1)|(up>KEY_SIG_NUM)){PositionPointer++;up=2;};
0005bf d784      	RCALL SUBOPT_0x15
0005c0 d749      	RCALL SUBOPT_0x9
0005c1 f011      	BREQ _0x33
0005c2 d74c      	RCALL SUBOPT_0xA
0005c3 d74e      	RCALL SUBOPT_0xB
                 _0x33:
                 ; 0000 00B9             if((down==1)|(down>KEY_SIG_NUM)){PositionPointer--;down=2;};
0005c4 d781      	RCALL SUBOPT_0x16
0005c5 d756      	RCALL SUBOPT_0xD
0005c6 f009      	BREQ _0x34
0005c7 d759      	RCALL SUBOPT_0xE
                 _0x34:
                 ; 0000 00BA         }
                 ; 0000 00BB 
                 ; 0000 00BC         if((enter==1)&(PositionPointer!=LAST_OPTION_MENU))
                 _0x32:
0005c8 d77f      	RCALL SUBOPT_0x17
0005c9 d73c      	RCALL SUBOPT_0x8
0005ca d735      	RCALL SUBOPT_0x6
0005cb e1e0      	LDI  R30,LOW(16)
0005cc d948      	RCALL __NEB12
0005cd 21e0      	AND  R30,R0
0005ce f1e1      	BREQ _0x35
                 ; 0000 00BD             {
                 ; 0000 00BE 
                 ; 0000 00BF                 podmenu=!podmenu;
0005cf e0e8      	LDI  R30,LOW(8)
0005d0 d77a      	RCALL SUBOPT_0x18
                 ; 0000 00C0                 enter=2;
0005d1 d77c      	RCALL SUBOPT_0x19
                 ; 0000 00C1                 if(podmenu==0){
0005d2 fc23      	SBRC R2,3
0005d3 c037      	RJMP _0x36
                 ; 0000 00C2                     #asm("cli")
0005d4 94f8      	cli
                 ; 0000 00C3                     typeEEP=type;
0005d5 91e0 017e 	LDS  R30,_type_G000
0005d7 e0a0      	LDI  R26,LOW(_typeEEP)
0005d8 e0b1      	LDI  R27,HIGH(_typeEEP)
0005d9 d9dd      	RCALL __EEPROMWRB
                 ; 0000 00C4                     t1EEP=t1;
0005da 91e0 017f 	LDS  R30,_t1_G000
0005dc e0a1      	LDI  R26,LOW(_t1EEP)
0005dd e0b1      	LDI  R27,HIGH(_t1EEP)
0005de d9d8      	RCALL __EEPROMWRB
                 ; 0000 00C5                     t2EEP=t2;
0005df 91e0 0180 	LDS  R30,_t2_G000
0005e1 e0a2      	LDI  R26,LOW(_t2EEP)
0005e2 e0b1      	LDI  R27,HIGH(_t2EEP)
0005e3 d9d3      	RCALL __EEPROMWRB
                 ; 0000 00C6                     t3EEP=t3;
0005e4 91e0 0181 	LDS  R30,_t3_G000
0005e6 e0a3      	LDI  R26,LOW(_t3EEP)
0005e7 e0b1      	LDI  R27,HIGH(_t3EEP)
0005e8 d9ce      	RCALL __EEPROMWRB
                 ; 0000 00C7                     t4EEP=t4;
0005e9 d767      	RCALL SUBOPT_0x1A
0005ea e0a4      	LDI  R26,LOW(_t4EEP)
0005eb e0b1      	LDI  R27,HIGH(_t4EEP)
0005ec d9ca      	RCALL __EEPROMWRB
                 ; 0000 00C8                     t5EEP=t5;
0005ed d766      	RCALL SUBOPT_0x1B
0005ee e0a5      	LDI  R26,LOW(_t5EEP)
0005ef e0b1      	LDI  R27,HIGH(_t5EEP)
0005f0 d9c6      	RCALL __EEPROMWRB
                 ; 0000 00C9                     TminZEEP=TminZ;
0005f1 d765      	RCALL SUBOPT_0x1C
0005f2 e0a6      	LDI  R26,LOW(_TminZEEP)
0005f3 e0b1      	LDI  R27,HIGH(_TminZEEP)
0005f4 d9c2      	RCALL __EEPROMWRB
                 ; 0000 00CA                     TminNEEP=TminN;
0005f5 91e0 0185 	LDS  R30,_TminN_G000
0005f7 e0a7      	LDI  R26,LOW(_TminNEEP)
0005f8 e0b1      	LDI  R27,HIGH(_TminNEEP)
0005f9 d9bd      	RCALL __EEPROMWRB
                 ; 0000 00CB                     KilkistZapuskiv_EEP=KilkistZapuskiv;
0005fa d75f      	RCALL SUBOPT_0x1D
0005fb e0aa      	LDI  R26,LOW(_KilkistZapuskiv_EEP)
0005fc e0b1      	LDI  R27,HIGH(_KilkistZapuskiv_EEP)
0005fd d9b9      	RCALL __EEPROMWRB
                 ; 0000 00CC                     Z_EEP=z;
0005fe e0e0      	LDI  R30,0
0005ff fc20      	SBRC R2,0
000600 e0e1      	LDI  R30,1
000601 e0a8      	LDI  R26,LOW(_Z_EEP)
000602 e0b1      	LDI  R27,HIGH(_Z_EEP)
000603 d9b3      	RCALL __EEPROMWRB
                 ; 0000 00CD                     R_EEP=r;
000604 e0e0      	LDI  R30,0
000605 fc21      	SBRC R2,1
000606 e0e1      	LDI  R30,1
000607 e0a9      	LDI  R26,LOW(_R_EEP)
000608 e0b1      	LDI  R27,HIGH(_R_EEP)
000609 d9ad      	RCALL __EEPROMWRB
                 ; 0000 00CE                     #asm("sei");
00060a 9478      	sei
                 ; 0000 00CF                 }
                 ; 0000 00D0             }
                 _0x36:
                 ; 0000 00D1         if(PositionPointer>LAST_OPTION_MENU){PositionPointer=FIRST_OPTION_MENU;}  //limits of Options menu
                 _0x35:
00060b d6f4      	RCALL SUBOPT_0x6
00060c 31a1      	CPI  R26,LOW(0x11)
00060d f010      	BRLO _0x37
00060e e0ea      	LDI  R30,LOW(10)
00060f d71d      	RCALL SUBOPT_0x10
                 ; 0000 00D2         if(PositionPointer<FIRST_OPTION_MENU){PositionPointer=LAST_OPTION_MENU;}
                 _0x37:
000610 d6ef      	RCALL SUBOPT_0x6
000611 30aa      	CPI  R26,LOW(0xA)
000612 f410      	BRSH _0x38
000613 e1e0      	LDI  R30,LOW(16)
000614 d718      	RCALL SUBOPT_0x10
                 ; 0000 00D3 
                 ; 0000 00D4         if((enter>GO_TO_OPTIONS)&(PositionPointer==LAST_OPTION_MENU)){PositionPointer=LAST_MODE_MENU;enter=2;LCD_Clear() ...
                 _0x38:
000615 d71a      	RCALL SUBOPT_0x11
000616 e1e0      	LDI  R30,LOW(16)
000617 d71e      	RCALL SUBOPT_0x12
000618 f011      	BREQ _0x39
000619 d70f      	RCALL SUBOPT_0xF
00061a d742      	RCALL SUBOPT_0x1E
                 ; 0000 00D5   }
                 _0x39:
                 ; 0000 00D6 }
                 _0x31:
00061b 9508      	RET
                 ; .FEND
                 ;//+++++++++++++++++++++++++++++++++++++++++++++++++++++++++++++++++++++++++++++++++++++++++++++++++++++++
                 ;// Timer 0 overflow interrupt service routine
                 ;interrupt [TIM0_OVF] void timer0_ovf_isr(void)
                 ; 0000 00DA {
                 _timer0_ovf_isr:
                 ; .FSTART _timer0_ovf_isr
00061c 920a      	ST   -Y,R0
00061d 921a      	ST   -Y,R1
00061e 92fa      	ST   -Y,R15
00061f 936a      	ST   -Y,R22
000620 937a      	ST   -Y,R23
000621 938a      	ST   -Y,R24
000622 939a      	ST   -Y,R25
000623 93aa      	ST   -Y,R26
000624 93ba      	ST   -Y,R27
000625 93ea      	ST   -Y,R30
000626 93fa      	ST   -Y,R31
000627 b7ef      	IN   R30,SREG
000628 93ea      	ST   -Y,R30
                 ; 0000 00DB #asm("cli")
000629 94f8      	cli
                 ; 0000 00DC 
                 ; 0000 00DD     if(rotor>8){STARTER_REL=0;}// -      v1.4)
00062a d735      	RCALL SUBOPT_0x1F
00062b 30a9      	CPI  R26,LOW(0x9)
00062c f008      	BRLO _0x3A
00062d 98c0      	CBI  0x18,0
                 ; 0000 00DE     if(ROTOR_PIN==0){rotor=rotor+1;}else{rotor=rotor-1;};
                 _0x3A:
00062e 999c      	SBIC 0x13,4
00062f c004      	RJMP _0x3D
000630 91e0 0193 	LDS  R30,_rotor_G000
000632 5fef      	SUBI R30,-LOW(1)
000633 c003      	RJMP _0x112
                 _0x3D:
000634 91e0 0193 	LDS  R30,_rotor_G000
000636 50e1      	SUBI R30,LOW(1)
                 _0x112:
000637 93e0 0193 	STS  _rotor_G000,R30
                 ; 0000 00DF     if(rotor<1) rotor=1;
000639 d726      	RCALL SUBOPT_0x1F
00063a 30a1      	CPI  R26,LOW(0x1)
00063b f418      	BRSH _0x3F
00063c e0e1      	LDI  R30,LOW(1)
00063d 93e0 0193 	STS  _rotor_G000,R30
                 ; 0000 00E0     if(rotor>10) rotor=10;
                 _0x3F:
00063f d720      	RCALL SUBOPT_0x1F
000640 30ab      	CPI  R26,LOW(0xB)
000641 f018      	BRLO _0x40
000642 e0ea      	LDI  R30,LOW(10)
000643 93e0 0193 	STS  _rotor_G000,R30
                 ; 0000 00E1 
                 ; 0000 00E2     if(KEY_U==0){up=up+1;podsvet=PODSVETKA;}      else  {up=0;};
                 _0x40:
000645 99b3      	SBIC 0x16,3
000646 c006      	RJMP _0x41
000647 91e0 0188 	LDS  R30,_up_G000
000649 5fef      	SUBI R30,-LOW(1)
00064a d718      	RCALL SUBOPT_0x20
00064b d71a      	RCALL SUBOPT_0x21
00064c c002      	RJMP _0x42
                 _0x41:
00064d e0e0      	LDI  R30,LOW(0)
00064e d714      	RCALL SUBOPT_0x20
                 _0x42:
                 ; 0000 00E3     if(KEY_D==0){down=down+1;podsvet=PODSVETKA;}  else  {down=0;};
00064f 99b2      	SBIC 0x16,2
000650 c006      	RJMP _0x43
000651 91e0 0189 	LDS  R30,_down_G000
000653 5fef      	SUBI R30,-LOW(1)
000654 d715      	RCALL SUBOPT_0x22
000655 d710      	RCALL SUBOPT_0x21
000656 c002      	RJMP _0x44
                 _0x43:
000657 e0e0      	LDI  R30,LOW(0)
000658 d711      	RCALL SUBOPT_0x22
                 _0x44:
                 ; 0000 00E4     if(KEY_E==0){enter=enter+1;podsvet=PODSVETKA;}else  {enter=0;};   //beep begin -DDRD.2=1;
000659 99b4      	SBIC 0x16,4
00065a c006      	RJMP _0x45
00065b 91e0 018a 	LDS  R30,_enter_G000
00065d 5fef      	SUBI R30,-LOW(1)
00065e d6ef      	RCALL SUBOPT_0x19
00065f d706      	RCALL SUBOPT_0x21
000660 c002      	RJMP _0x46
                 _0x45:
000661 e0e0      	LDI  R30,LOW(0)
000662 d6eb      	RCALL SUBOPT_0x19
                 _0x46:
                 ; 0000 00E5 
                 ; 0000 00E6     if(up>99) up=99;
000663 d69f      	RCALL SUBOPT_0x7
000664 36a4      	CPI  R26,LOW(0x64)
000665 f010      	BRLO _0x47
000666 e6e3      	LDI  R30,LOW(99)
000667 d6fb      	RCALL SUBOPT_0x20
                 ; 0000 00E7     if(down>99) down=99;
                 _0x47:
000668 d6b0      	RCALL SUBOPT_0xC
000669 36a4      	CPI  R26,LOW(0x64)
00066a f010      	BRLO _0x48
00066b e6e3      	LDI  R30,LOW(99)
00066c d6fd      	RCALL SUBOPT_0x22
                 ; 0000 00E8     if(enter>99) enter=99;
                 _0x48:
00066d d6da      	RCALL SUBOPT_0x17
00066e 36a4      	CPI  R26,LOW(0x64)
00066f f010      	BRLO _0x49
000670 e6e3      	LDI  R30,LOW(99)
000671 d6dc      	RCALL SUBOPT_0x19
                 ; 0000 00E9     UpDownEnterKey();
                 _0x49:
000672 df14      	RCALL _UpDownEnterKey
                 ; 0000 00EA /*
                 ; 0000 00EB     U_Bat_ADC=read_adc(0);
                 ; 0000 00EC     U1_ADC=read_adc(2);
                 ; 0000 00ED     T_ADC=read_adc(1);
                 ; 0000 00EE 
                 ; 0000 00EF     T_ADC=T_ADC/4;
                 ; 0000 00F0     T=Termo[T_ADC];
                 ; 0000 00F1     T=T-50;
                 ; 0000 00F2     U_Bat=(U_Bat_ADC*20)/102; // -  !!!!    10
                 ; 0000 00F3     U1=(U1_ADC*11)/41;//  
                 ; 0000 00F4 */
                 ; 0000 00F5     U_Bat_ADC=U_Bat_ADC+read_adc(1);
000673 e0a1      	LDI  R26,LOW(1)
000674 df03      	RCALL _read_adc
                +
000675 0e6e     +ADD R6 , R30
000676 1e7f     +ADC R7 , R31
                 	__ADDWRR 6,7,30,31
                 ; 0000 00F6     U_Bat_ADC=U_Bat_ADC>>1;
000677 9476      	LSR  R7
000678 9467      	ROR  R6
                 ; 0000 00F7     U1_ADC=U1_ADC+read_adc(0);
000679 e0a0      	LDI  R26,LOW(0)
00067a defd      	RCALL _read_adc
                +
00067b 0eae     +ADD R10 , R30
00067c 1ebf     +ADC R11 , R31
                 	__ADDWRR 10,11,30,31
                 ; 0000 00F8     U1_ADC=U1_ADC>>1;
00067d 94b6      	LSR  R11
00067e 94a7      	ROR  R10
                 ; 0000 00F9 
                 ; 0000 00FA     T_ADC=T_ADC+read_adc(5);
00067f e0a5      	LDI  R26,LOW(5)
000680 def7      	RCALL _read_adc
                +
000681 0e8e     +ADD R8 , R30
000682 1e9f     +ADC R9 , R31
                 	__ADDWRR 8,9,30,31
                 ; 0000 00FB     T_ADC=T_ADC>>1;
000683 9496      	LSR  R9
000684 9487      	ROR  R8
                 ; 0000 00FC 
                 ; 0000 00FD 
                 ; 0000 00FE     if(interrapt_counter>=31) //61~2sec -   8 mHz
000685 91a0 0194 	LDS  R26,_interrapt_counter_G000
000687 91b0 0195 	LDS  R27,_interrapt_counter_G000+1
000689 975f      	SBIW R26,31
00068a f408      	BRSH PC+2
00068b c04d      	RJMP _0x4A
                 ; 0000 00FF     {
                 ; 0000 0100         U_Bat=U_Bat_ADC/5; // -  !!!!    10
00068c 01d3      	MOVW R26,R6
00068d e0e5      	LDI  R30,LOW(5)
00068e e0f0      	LDI  R31,HIGH(5)
00068f d8b3      	RCALL __DIVW21U
000690 93e0 018d 	STS  _U_Bat_G000,R30
000692 93f0 018e 	STS  _U_Bat_G000+1,R31
                 ; 0000 0101         U1=(U1_ADC*11)/41;//  
000694 01f5      	MOVW R30,R10
000695 e0ab      	LDI  R26,LOW(11)
000696 e0b0      	LDI  R27,HIGH(11)
000697 d89d      	RCALL __MULW12U
000698 01df      	MOVW R26,R30
000699 e2e9      	LDI  R30,LOW(41)
00069a e0f0      	LDI  R31,HIGH(41)
00069b d8a7      	RCALL __DIVW21U
00069c d6d0      	RCALL SUBOPT_0x23
                 ; 0000 0102         T=Termo[T_ADC>>2]; // divide 4
00069d 01f4      	MOVW R30,R8
00069e d867      	RCALL __LSRW2
00069f 50e0      	SUBI R30,LOW(-_Termo)
0006a0 40f0      	SBCI R31,HIGH(-_Termo)
0006a1 01df      	MOVW R26,R30
0006a2 d900      	RCALL __EEPROMRDB
0006a3 e0f0      	LDI  R31,0
0006a4 d6cd      	RCALL SUBOPT_0x24
                 ; 0000 0103         T=T-50;
0006a5 d6d1      	RCALL SUBOPT_0x25
0006a6 97f2      	SBIW R30,50
0006a7 d6ca      	RCALL SUBOPT_0x24
                 ; 0000 0104 
                 ; 0000 0105         interrapt_counter=0;
0006a8 e0e0      	LDI  R30,LOW(0)
0006a9 93e0 0194 	STS  _interrapt_counter_G000,R30
0006ab 93e0 0195 	STS  _interrapt_counter_G000+1,R30
                 ; 0000 0106         second_counter++;
0006ad 91e0 0196 	LDS  R30,_second_counter_G000
0006af 5fef      	SUBI R30,-LOW(1)
0006b0 93e0 0196 	STS  _second_counter_G000,R30
                 ; 0000 0107         if(podsvet>0)podsvet--;
0006b2 91a0 018c 	LDS  R26,_podsvet_G000
0006b4 30a1      	CPI  R26,LOW(0x1)
0006b5 f028      	BRLO _0x4B
0006b6 91e0 018c 	LDS  R30,_podsvet_G000
0006b8 50e1      	SUBI R30,LOW(1)
0006b9 93e0 018c 	STS  _podsvet_G000,R30
                 ; 0000 0108 
                 ; 0000 0109         ////////////////TO
                 ; 0000 010A         if(TO_EEP!=0)
                 _0x4B:
0006bb d6c0      	RCALL SUBOPT_0x26
0006bc f061      	BREQ _0x4C
                 ; 0000 010B         {
                 ; 0000 010C             if (second_counter%2!=0){TO_output=1; }
0006bd 91a0 0196 	LDS  R26,_second_counter_G000
0006bf 27bb      	CLR  R27
0006c0 e0e2      	LDI  R30,LOW(2)
0006c1 e0f0      	LDI  R31,HIGH(2)
0006c2 d8bb      	RCALL __MODW21
0006c3 9730      	SBIW R30,0
0006c4 f011      	BREQ _0x4D
0006c5 9468      	SET
0006c6 c001      	RJMP _0x113
                 ; 0000 010D             else{TO_output=0;};//  
                 _0x4D:
0006c7 94e8      	CLT
                 _0x113:
0006c8 f822      	BLD  R2,2
                 ; 0000 010E         }
                 ; 0000 010F         ////////////////TO
                 ; 0000 0110           if(second_counter>=59)
                 _0x4C:
0006c9 91a0 0196 	LDS  R26,_second_counter_G000
0006cb 33ab      	CPI  R26,LOW(0x3B)
0006cc f060      	BRLO _0x4F
                 ; 0000 0111         {
                 ; 0000 0112             second_counter=0;
0006cd e0e0      	LDI  R30,LOW(0)
0006ce 93e0 0196 	STS  _second_counter_G000,R30
                 ; 0000 0113             podsvet=10;
0006d0 e0ea      	LDI  R30,LOW(10)
0006d1 93e0 018c 	STS  _podsvet_G000,R30
                 ; 0000 0114             if(PositionPointer==32){minut_counter++;};
0006d3 d62c      	RCALL SUBOPT_0x6
0006d4 32a0      	CPI  R26,LOW(0x20)
0006d5 f419      	BRNE _0x50
0006d6 e9a7      	LDI  R26,LOW(_minut_counter_G000)
0006d7 e0b1      	LDI  R27,HIGH(_minut_counter_G000)
0006d8 d6a8      	RCALL SUBOPT_0x27
                 _0x50:
                 ; 0000 0115         }
                 ; 0000 0116     }
                 _0x4F:
                 ; 0000 0117     interrapt_counter++;
                 _0x4A:
0006d9 e9a4      	LDI  R26,LOW(_interrapt_counter_G000)
0006da e0b1      	LDI  R27,HIGH(_interrapt_counter_G000)
0006db d6a5      	RCALL SUBOPT_0x27
                 ; 0000 0118 
                 ; 0000 0119 //  
                 ; 0000 011A 
                 ; 0000 011B 
                 ; 0000 011C #asm("sei")
0006dc 9478      	sei
                 ; 0000 011D }
0006dd 91e9      	LD   R30,Y+
0006de bfef      	OUT  SREG,R30
0006df 91f9      	LD   R31,Y+
0006e0 91e9      	LD   R30,Y+
0006e1 91b9      	LD   R27,Y+
0006e2 91a9      	LD   R26,Y+
0006e3 9199      	LD   R25,Y+
0006e4 9189      	LD   R24,Y+
0006e5 9179      	LD   R23,Y+
0006e6 9169      	LD   R22,Y+
0006e7 90f9      	LD   R15,Y+
0006e8 9019      	LD   R1,Y+
0006e9 9009      	LD   R0,Y+
0006ea 9518      	RETI
                 ; .FEND
                 ;//+++++++++++++++++++++++++++++++++++++++++++++++++++++++++++++++++++++++++++++++++++++++++++++++++++++++
                 ;void PerehodNaGenerator()
                 ; 0000 0120 {
                 _PerehodNaGenerator:
                 ; .FSTART _PerehodNaGenerator
                 ; 0000 0121         LINE_REL=1; //  
0006eb 9a93      	SBI  0x12,3
                 ; 0000 0122         delay_ms(HALF_SECOND);
0006ec d69a      	RCALL SUBOPT_0x28
                 ; 0000 0123         GEN_REL=1; //  
0006ed 9a92      	SBI  0x12,2
                 ; 0000 0124 }
0006ee 9508      	RET
                 ; .FEND
                 ;//+++++++++++++++++++++++++++++++++++++++++++++++++++++++++++++++++++++++++++++++++++++++++++++++++++++++
                 ;void PerehodNaMereju()
                 ; 0000 0127 {
                 _PerehodNaMereju:
                 ; .FSTART _PerehodNaMereju
                 ; 0000 0128         GEN_REL=0; //  
0006ef 9892      	CBI  0x12,2
                 ; 0000 0129         delay_ms(HALF_SECOND);
0006f0 d696      	RCALL SUBOPT_0x28
                 ; 0000 012A         LINE_REL=0; //  
0006f1 9893      	CBI  0x12,3
                 ; 0000 012B }
0006f2 9508      	RET
                 ; .FEND
                 ;//+++++++++++++++++++++++++++++++++++++++++++++++++++++++++++++++++++++++++++++++++++++++++++++++++++++++
                 ;void Klapan_off()
                 ; 0000 012E {
                 _Klapan_off:
                 ; .FSTART _Klapan_off
                 ; 0000 012F #asm("cli")
0006f3 94f8      	cli
                 ; 0000 0130 LCD_Clear();
0006f4 ddbb      	RCALL _LCD_Clear
                 ; 0000 0131             temp=15;  //      ( )
0006f5 e0ef      	LDI  R30,LOW(15)
0006f6 e0f0      	LDI  R31,HIGH(15)
0006f7 d692      	RCALL SUBOPT_0x29
                 ; 0000 0132             OFF_REL=1; //   
0006f8 9a95      	SBI  0x12,5
                 ; 0000 0133             while (temp!=0){
                 _0x5B:
0006f9 d695      	RCALL SUBOPT_0x2A
0006fa 9730      	SBIW R30,0
0006fb f031      	BREQ _0x5D
                 ; 0000 0134 //                 sprintf(buff,"   "); ShowBigLine(3);
                 ; 0000 0135                     sprintf(buff," .%2.uc",temp);ShowBigLine(5);
0006fc d697      	RCALL SUBOPT_0x2B
                +
0006fd e9e2     +LDI R30 , LOW ( 2 * _0x0 + ( 0 ) )
0006fe e0f4     +LDI R31 , HIGH ( 2 * _0x0 + ( 0 ) )
                 	__POINTW1FN _0x0,0
0006ff d697      	RCALL SUBOPT_0x2C
                 ; 0000 0136                     delay_ms(ONE_SECOND);
                 ; 0000 0137                    // PORTD.6=0;//      
                 ; 0000 0138                     temp--;
000700 d6a3      	RCALL SUBOPT_0x2D
                 ; 0000 0139                  };
000701 cff7      	RJMP _0x5B
                 _0x5D:
                 ; 0000 013A             OFF_REL=0; //   
000702 9895      	CBI  0x12,5
                 ; 0000 013B             ON_REL=0;// 
000703 9894      	CBI  0x12,4
                 ; 0000 013C LCD_Clear();
000704 ddab      	RCALL _LCD_Clear
                 ; 0000 013D #asm("sei")
000705 9478      	sei
                 ; 0000 013E }
000706 9508      	RET
                 ; .FEND
                 ;//+++++++++++++++++++++++++++++++++++++++++++++++++++++++++++++++++++++++++++++++++++++++++++++++++++++++
                 ;
                 ;
                 ;
                 ;void MainInfo()
                 ; 0000 0144 {
                 _MainInfo:
                 ; .FSTART _MainInfo
                 ; 0000 0145     sprintf(buff," Uin =%4.uB ",U1);ShowBigLine(3);
000707 d68c      	RCALL SUBOPT_0x2B
                +
000708 e9ef     +LDI R30 , LOW ( 2 * _0x0 + ( 13 ) )
000709 e0f4     +LDI R31 , HIGH ( 2 * _0x0 + ( 13 ) )
                 	__POINTW1FN _0x0,13
00070a d6a1      	RCALL SUBOPT_0x2E
                 ; 0000 0146     sprintf(buff,"       Ub = %2.u.%1.uB       ",U_Bat/10,U_Bat%10);ShowLine(5);
                +
00070b eaec     +LDI R30 , LOW ( 2 * _0x0 + ( 26 ) )
00070c e0f4     +LDI R31 , HIGH ( 2 * _0x0 + ( 26 ) )
                 	__POINTW1FN _0x0,26
00070d d5e2      	RCALL SUBOPT_0x2
00070e d6ab      	RCALL SUBOPT_0x2F
00070f d6b1      	RCALL SUBOPT_0x30
000710 d6a9      	RCALL SUBOPT_0x2F
000711 d869      	RCALL __MODW21U
000712 d6b3      	RCALL SUBOPT_0x31
000713 e088      	LDI  R24,8
000714 d594      	RCALL _sprintf
000715 962c      	ADIW R28,12
000716 e0a5      	LDI  R26,LOW(5)
000717 de4e      	RCALL _ShowLine
                 ; 0000 0147 //    sprintf(buff,"  Ub =%2.u.%1.uB N:%5.uh ",U_Bat/10,U_Bat%10,NarabotkaEEP/6);ShowLine(5);
                 ; 0000 0148 //    LCD_Goto(0,5);
                 ; 0000 0149 //    LCD_Printf(buff,1);  //    
                 ; 0000 014A //            sprintf(buff,"      N:%6.uh       ",NarabotkaEEP/6);
                 ; 0000 014B //            sprintf(buff,":'TO'  N:%5.uh ",NarabotkaEEP/6); ShowLine(INFOLINE1);
                 ; 0000 014C //sprintf(buff,"   .  "); ShowLine(INFOLINE2);
                 ; 0000 014D //sprintf(buff," Uin =%4.uB Ubat=%2.u.%1.uB ",U1,U_Bat/10,U_Bat%10);ShowLine(2);
                 ; 0000 014E     if(TO_EEP)
000718 d663      	RCALL SUBOPT_0x26
000719 f071      	BREQ _0x62
                 ; 0000 014F     {
                 ; 0000 0150         if(TO_output)
00071a fe22      	SBRS R2,2
00071b c004      	RJMP _0x63
                 ; 0000 0151         {
                 ; 0000 0152             sprintf(buff,"                      ");
00071c d677      	RCALL SUBOPT_0x2B
                +
00071d ecea     +LDI R30 , LOW ( 2 * _0x0 + ( 56 ) )
00071e e0f4     +LDI R31 , HIGH ( 2 * _0x0 + ( 56 ) )
                 	__POINTW1FN _0x0,56
00071f c003      	RJMP _0x114
                 ; 0000 0153         }
                 ; 0000 0154         else
                 _0x63:
                 ; 0000 0155         {
                 ; 0000 0156             sprintf(buff," !!!  !!! ");
000720 d673      	RCALL SUBOPT_0x2B
                +
000721 eee1     +LDI R30 , LOW ( 2 * _0x0 + ( 79 ) )
000722 e0f4     +LDI R31 , HIGH ( 2 * _0x0 + ( 79 ) )
                 	__POINTW1FN _0x0,79
                 _0x114:
000723 93fa      	ST   -Y,R31
000724 93ea      	ST   -Y,R30
000725 d6a4      	RCALL SUBOPT_0x32
                 ; 0000 0157 
                 ; 0000 0158         }
                 ; 0000 0159         ShowLine(INFOLINE2);
000726 e0a7      	LDI  R26,LOW(7)
000727 de3e      	RCALL _ShowLine
                 ; 0000 015A     }
                 ; 0000 015B 
                 ; 0000 015C             if (T<0){  sprintf(buff,"  T =-%3.i*C N:%5.uh ",-T,NarabotkaEEP/6);}
                 _0x62:
000728 91a0 0192 	LDS  R26,_T_G000+1
00072a 23aa      	TST  R26
00072b f43a      	BRPL _0x65
00072c d667      	RCALL SUBOPT_0x2B
                +
00072d efe8     +LDI R30 , LOW ( 2 * _0x0 + ( 102 ) )
00072e e0f4     +LDI R31 , HIGH ( 2 * _0x0 + ( 102 ) )
                 	__POINTW1FN _0x0,102
00072f d5c0      	RCALL SUBOPT_0x2
000730 d646      	RCALL SUBOPT_0x25
000731 d7c8      	RCALL __ANEGW1
000732 c005      	RJMP _0x115
                 ; 0000 015D                 else{  sprintf(buff,"  T = %3.i*C N:%5.uh ",T,NarabotkaEEP/6);};
                 _0x65:
000733 d660      	RCALL SUBOPT_0x2B
                +
000734 e0ee     +LDI R30 , LOW ( 2 * _0x0 + ( 124 ) )
000735 e0f5     +LDI R31 , HIGH ( 2 * _0x0 + ( 124 ) )
                 	__POINTW1FN _0x0,124
000736 d5b9      	RCALL SUBOPT_0x2
000737 d63f      	RCALL SUBOPT_0x25
                 _0x115:
000738 d7d2      	RCALL __CWD1
000739 d860      	RCALL __PUTPARD1
00073a d693      	RCALL SUBOPT_0x33
00073b e088      	LDI  R24,8
00073c d56c      	RCALL _sprintf
00073d 962c      	ADIW R28,12
                 ; 0000 015E             if (T<-25){sprintf(buff,"  T = n/c   N:%5.uh ",NarabotkaEEP/6);};  ShowLine(6);
00073e d696      	RCALL SUBOPT_0x34
00073f 3ea7      	CPI  R26,LOW(0xFFE7)
000740 efef      	LDI  R30,HIGH(0xFFE7)
000741 07be      	CPC  R27,R30
000742 f434      	BRGE _0x67
000743 d650      	RCALL SUBOPT_0x2B
                +
000744 e2e4     +LDI R30 , LOW ( 2 * _0x0 + ( 146 ) )
000745 e0f5     +LDI R31 , HIGH ( 2 * _0x0 + ( 146 ) )
                 	__POINTW1FN _0x0,146
000746 d5a9      	RCALL SUBOPT_0x2
000747 d686      	RCALL SUBOPT_0x33
000748 d691      	RCALL SUBOPT_0x35
                 _0x67:
000749 d694      	RCALL SUBOPT_0x36
                 ; 0000 015F }
00074a 9508      	RET
                 ; .FEND
                 ;//+++++++++++++++++++++++++++++++++++++++++++++++++++++++++++++++++++++++++++++++++++++++++++++++++++++++
                 ;//--------------------------------    MAIN     ----------------------------------------------------------
                 ;//+++++++++++++++++++++++++++++++++++++++++++++++++++++++++++++++++++++++++++++++++++++++++++++++++++++++
                 ;void main(void)
                 ; 0000 0164 {
                 _main:
                 ; .FSTART _main
                 ; 0000 0165 // Declare your local variables here
                 ; 0000 0166 
                 ; 0000 0167 // Input/Output Ports initialization
                 ; 0000 0168 
                 ; 0000 0169 PORTB=0b00000000; DDRB =0b00100011;         // 0-START ; 1,5 - OLED; 2,3,4 -keys;  6,7 - zaslonka
00074b e0e0      	LDI  R30,LOW(0)
00074c bbe8      	OUT  0x18,R30
00074d e2e3      	LDI  R30,LOW(35)
00074e bbe7      	OUT  0x17,R30
                 ; 0000 016A PORTC=0b00000000; DDRC =0b00000000;         //
00074f e0e0      	LDI  R30,LOW(0)
000750 bbe5      	OUT  0x15,R30
000751 bbe4      	OUT  0x14,R30
                 ; 0000 016B PORTD=0b00000000; DDRD =0b11111100;
000752 bbe2      	OUT  0x12,R30
000753 efec      	LDI  R30,LOW(252)
000754 bbe1      	OUT  0x11,R30
                 ; 0000 016C 
                 ; 0000 016D // Timer/Counter 0 initialization
                 ; 0000 016E // Clock source: System Clock; Clock value: 0,977 kHz ???
                 ; 0000 016F TCCR0=(1<<CS02) | (0<<CS01) | (1<<CS00);
000755 e0e5      	LDI  R30,LOW(5)
000756 bfe3      	OUT  0x33,R30
                 ; 0000 0170 TCNT0=0x00;
000757 e0e0      	LDI  R30,LOW(0)
000758 bfe2      	OUT  0x32,R30
                 ; 0000 0171 // Timer(s)/Counter(s) Interrupt(s) initialization
                 ; 0000 0172 TIMSK=(0<<OCIE2) | (0<<TOIE2) | (0<<TICIE1) | (0<<OCIE1A) | (0<<OCIE1B) | (0<<TOIE1) | (1<<TOIE0);
000759 e0e1      	LDI  R30,LOW(1)
00075a bfe9      	OUT  0x39,R30
                 ; 0000 0173 // External Interrupt(s) initialization  INT0: Off; INT1: Off
                 ; 0000 0174 MCUCR=(0<<ISC11) | (0<<ISC10) | (0<<ISC01) | (0<<ISC00);
00075b e0e0      	LDI  R30,LOW(0)
00075c bfe5      	OUT  0x35,R30
                 ; 0000 0175 // USART initialization USART disabled
                 ; 0000 0176 UCSRB=(0<<RXCIE) | (0<<TXCIE) | (0<<UDRIE) | (0<<RXEN) | (0<<TXEN) | (0<<UCSZ2) | (0<<RXB8) | (0<<TXB8);
00075d b9ea      	OUT  0xA,R30
                 ; 0000 0177 // Analog Comparator: Off
                 ; 0000 0178 ACSR=(1<<ACD) | (0<<ACBG) | (0<<ACO) | (0<<ACI) | (0<<ACIE) | (0<<ACIC) | (0<<ACIS1) | (0<<ACIS0);
00075e e8e0      	LDI  R30,LOW(128)
00075f b9e8      	OUT  0x8,R30
                 ; 0000 0179 // ADC Clock frequency: 1000.000 kHz, AREF pin
                 ; 0000 017A ADMUX=ADC_VREF_TYPE;
000760 ece0      	LDI  R30,LOW(192)
000761 b9e7      	OUT  0x7,R30
                 ; 0000 017B ADCSRA=(1<<ADEN) | (0<<ADSC) | (0<<ADFR) | (0<<ADIF) | (0<<ADIE) | (0<<ADPS2) | (0<<ADPS1) | (1<<ADPS0);
000762 e8e1      	LDI  R30,LOW(129)
000763 b9e6      	OUT  0x6,R30
                 ; 0000 017C SFIOR=(0<<ACME);
000764 e0e0      	LDI  R30,LOW(0)
000765 bfe0      	OUT  0x30,R30
                 ; 0000 017D 
                 ; 0000 017E // Bit-Banged I2C Bus initialization
                 ; 0000 017F // Project|Configure|C Compiler|Libraries|I2C menu.
                 ; 0000 0180 ///////////////////////////////////////////////////////////////////////////////
                 ; 0000 0181 // Init Variables and sequenses
                 ; 0000 0182 
                 ; 0000 0183 PositionPointer=1;
000766 e0e1      	LDI  R30,LOW(1)
000767 d5c5      	RCALL SUBOPT_0x10
                 ; 0000 0184 //Narabotka=0;
                 ; 0000 0185 //   EEPROM
                 ; 0000 0186 type=typeEEP;
000768 e0a0      	LDI  R26,LOW(_typeEEP)
000769 e0b1      	LDI  R27,HIGH(_typeEEP)
00076a d838      	RCALL __EEPROMRDB
00076b 93e0 017e 	STS  _type_G000,R30
                 ; 0000 0187 t1=t1EEP;
00076d e0a1      	LDI  R26,LOW(_t1EEP)
00076e e0b1      	LDI  R27,HIGH(_t1EEP)
00076f d833      	RCALL __EEPROMRDB
000770 93e0 017f 	STS  _t1_G000,R30
                 ; 0000 0188 t2=t2EEP;
000772 e0a2      	LDI  R26,LOW(_t2EEP)
000773 e0b1      	LDI  R27,HIGH(_t2EEP)
000774 d82e      	RCALL __EEPROMRDB
000775 93e0 0180 	STS  _t2_G000,R30
                 ; 0000 0189 t3=t3EEP;
000777 e0a3      	LDI  R26,LOW(_t3EEP)
000778 e0b1      	LDI  R27,HIGH(_t3EEP)
000779 d829      	RCALL __EEPROMRDB
00077a 93e0 0181 	STS  _t3_G000,R30
                 ; 0000 018A t4=t4EEP;
00077c e0a4      	LDI  R26,LOW(_t4EEP)
00077d e0b1      	LDI  R27,HIGH(_t4EEP)
00077e d824      	RCALL __EEPROMRDB
00077f d660      	RCALL SUBOPT_0x37
                 ; 0000 018B t5=t5EEP;
000780 e0a5      	LDI  R26,LOW(_t5EEP)
000781 e0b1      	LDI  R27,HIGH(_t5EEP)
000782 d820      	RCALL __EEPROMRDB
000783 d65f      	RCALL SUBOPT_0x38
                 ; 0000 018C //t6=t6EEP;
                 ; 0000 018D TminZ=TminZEEP;
000784 e0a6      	LDI  R26,LOW(_TminZEEP)
000785 e0b1      	LDI  R27,HIGH(_TminZEEP)
000786 d81c      	RCALL __EEPROMRDB
000787 d65e      	RCALL SUBOPT_0x39
                 ; 0000 018E TminN=TminNEEP;
000788 e0a7      	LDI  R26,LOW(_TminNEEP)
000789 e0b1      	LDI  R27,HIGH(_TminNEEP)
00078a d818      	RCALL __EEPROMRDB
00078b 93e0 0185 	STS  _TminN_G000,R30
                 ; 0000 018F z=Z_EEP;
00078d e0a8      	LDI  R26,LOW(_Z_EEP)
00078e e0b1      	LDI  R27,HIGH(_Z_EEP)
00078f d813      	RCALL __EEPROMRDB
000790 d83b      	RCALL __BSTB1
000791 f820      	BLD  R2,0
                 ; 0000 0190 r=R_EEP;
000792 e0a9      	LDI  R26,LOW(_R_EEP)
000793 e0b1      	LDI  R27,HIGH(_R_EEP)
000794 d80e      	RCALL __EEPROMRDB
000795 d836      	RCALL __BSTB1
000796 f821      	BLD  R2,1
                 ; 0000 0191 KilkistZapuskiv=KilkistZapuskiv_EEP;
000797 d5a6      	RCALL SUBOPT_0x14
                 ; 0000 0192 //EEPROM
                 ; 0000 0193 
                 ; 0000 0194 U1=220;
000798 edec      	LDI  R30,LOW(220)
000799 e0f0      	LDI  R31,HIGH(220)
00079a d5d2      	RCALL SUBOPT_0x23
                 ; 0000 0195 i2c_init();
00079b d6ff      	RCALL _i2c_init
                 ; 0000 0196 #asm("sei")    // Global enable interrupts
00079c 9478      	sei
                 ; 0000 0197 //   PWR_LCD=1;
                 ; 0000 0198 ///////////////////////////////////////////////////////////////////////////////
                 ; 0000 0199 
                 ; 0000 019A     LCD_init();
00079d dc98      	RCALL _LCD_init
                 ; 0000 019B     sprintf(buff," MicroCraft "); ShowBigLine(0);
00079e d5f5      	RCALL SUBOPT_0x2B
                +
00079f e3e9     +LDI R30 , LOW ( 2 * _0x0 + ( 167 ) )
0007a0 e0f5     +LDI R31 , HIGH ( 2 * _0x0 + ( 167 ) )
                 	__POINTW1FN _0x0,167
0007a1 d647      	RCALL SUBOPT_0x3A
0007a2 d648      	RCALL SUBOPT_0x3B
                 ; 0000 019C     LCD_Goto(45,3);
0007a3 e2ed      	LDI  R30,LOW(45)
0007a4 93ea      	ST   -Y,R30
0007a5 e0a3      	LDI  R26,LOW(3)
0007a6 d555      	RCALL SUBOPT_0x5
                 ; 0000 019D 
                 ; 0000 019E     sprintf(buff,"(TM)");
                +
0007a7 e4e6     +LDI R30 , LOW ( 2 * _0x0 + ( 180 ) )
0007a8 e0f5     +LDI R31 , HIGH ( 2 * _0x0 + ( 180 ) )
                 	__POINTW1FN _0x0,180
0007a9 d63f      	RCALL SUBOPT_0x3A
                 ; 0000 019F     LCD_Printf(buff,1);  //    
0007aa d5e9      	RCALL SUBOPT_0x2B
0007ab e0a1      	LDI  R26,LOW(1)
0007ac dda3      	RCALL _LCD_Printf
                 ; 0000 01A0     LCD_Goto(0,6);
0007ad d53d      	RCALL SUBOPT_0x0
0007ae e0a6      	LDI  R26,LOW(6)
0007af d54c      	RCALL SUBOPT_0x5
                 ; 0000 01A1     sprintf(buff," PGSII  v.2 ");
                +
0007b0 e4eb     +LDI R30 , LOW ( 2 * _0x0 + ( 185 ) )
0007b1 e0f5     +LDI R31 , HIGH ( 2 * _0x0 + ( 185 ) )
                 	__POINTW1FN _0x0,185
0007b2 d636      	RCALL SUBOPT_0x3A
                 ; 0000 01A2     LCD_Printf(buff,1);  //    
0007b3 d5e0      	RCALL SUBOPT_0x2B
0007b4 e0a1      	LDI  R26,LOW(1)
0007b5 dd9a      	RCALL _LCD_Printf
                 ; 0000 01A3 
                 ; 0000 01A4     LCD_Blinc(QUARTER_SECOND,3);
0007b6 d636      	RCALL SUBOPT_0x3C
                 ; 0000 01A5 /*
                 ; 0000 01A6 //    delay_ms(5000);
                 ; 0000 01A7 
                 ; 0000 01A8     //     LCD_DrawImage(0);
                 ; 0000 01A9     //     delay_ms(5000);
                 ; 0000 01AA //LCD_Clear();
                 ; 0000 01AB     //       LCD_Contrast(1);
                 ; 0000 01AC     */
                 ; 0000 01AD ///////////////////////////////////////////////////////////////////////////////
                 ; 0000 01AE while (1)
                 _0x68:
                 ; 0000 01AF     {
                 ; 0000 01B0       #asm("cli")
0007b7 94f8      	cli
                 ; 0000 01B1       if(podmenu == 0){LCD_Mode(0);}
0007b8 fc23      	SBRC R2,3
0007b9 c002      	RJMP _0x6B
0007ba e0a0      	LDI  R26,LOW(0)
0007bb c001      	RJMP _0x116
                 ; 0000 01B2       else{LCD_Mode(1);}
                 _0x6B:
0007bc e0a1      	LDI  R26,LOW(1)
                 _0x116:
0007bd dcb5      	RCALL _LCD_Mode
                 ; 0000 01B3       #asm("sei")
0007be 9478      	sei
                 ; 0000 01B4 ///////////////////////////////////////////////////////////////////////////////
                 ; 0000 01B5 //    sprintf(buff,"  R:%2.u S%3.u e:%2.u p:%2.u",rotor,second_counter,enter,PositionPointer);
                 ; 0000 01B6 //    sprintf(buff,"%3.u %3.u N:%4.u p%2.u",second_counter,minut_counter,NarabotkaEEP,PositionPointer);
                 ; 0000 01B7 //    ShowLine(7);
                 ; 0000 01B8 
                 ; 0000 01B9 //    sprintf(buff,"      N:%6.u     ",NarabotkaEEP/6);
                 ; 0000 01BA //    ShowLine(7);
                 ; 0000 01BB 
                 ; 0000 01BC //                        sprintf(buf2,"N=%4.u ",NarabotkaMinEEP/10);
                 ; 0000 01BD ///////////////////////////////////////////////////////////////////////////////
                 ; 0000 01BE if (minut_counter>=10)
0007bf 91a0 0197 	LDS  R26,_minut_counter_G000
0007c1 91b0 0198 	LDS  R27,_minut_counter_G000+1
0007c3 971a      	SBIW R26,10
0007c4 f130      	BRLO _0x6D
                 ; 0000 01BF {
                 ; 0000 01C0     #asm("cli")
0007c5 94f8      	cli
                 ; 0000 01C1     NarabotkaEEP++;
0007c6 d62b      	RCALL SUBOPT_0x3D
0007c7 9631      	ADIW R30,1
0007c8 d7e6      	RCALL __EEPROMWRW
                 ; 0000 01C2     minut_counter=0;
0007c9 e0e0      	LDI  R30,LOW(0)
0007ca 93e0 0197 	STS  _minut_counter_G000,R30
0007cc 93e0 0198 	STS  _minut_counter_G000+1,R30
                 ; 0000 01C3     if ((NarabotkaEEP==120)|(NarabotkaEEP==600)|(NarabotkaEEP==1200)|(NarabotkaEEP==1800)|(NarabotkaEEP==2400)){Narabotk ...
0007ce d623      	RCALL SUBOPT_0x3D
0007cf 01bf      	MOVW R22,R30
0007d0 e7a8      	LDI  R26,LOW(120)
0007d1 e0b0      	LDI  R27,HIGH(120)
0007d2 d756      	RCALL __EQW12
0007d3 2e0e      	MOV  R0,R30
0007d4 01fb      	MOVW R30,R22
0007d5 e5a8      	LDI  R26,LOW(600)
0007d6 e0b2      	LDI  R27,HIGH(600)
0007d7 d61e      	RCALL SUBOPT_0x3E
0007d8 eba0      	LDI  R26,LOW(1200)
0007d9 e0b4      	LDI  R27,HIGH(1200)
0007da d61b      	RCALL SUBOPT_0x3E
0007db e0a8      	LDI  R26,LOW(1800)
0007dc e0b7      	LDI  R27,HIGH(1800)
0007dd d618      	RCALL SUBOPT_0x3E
0007de e6a0      	LDI  R26,LOW(2400)
0007df e0b9      	LDI  R27,HIGH(2400)
0007e0 d748      	RCALL __EQW12
0007e1 29e0      	OR   R30,R0
0007e2 f039      	BREQ _0x6E
0007e3 d60e      	RCALL SUBOPT_0x3D
0007e4 9631      	ADIW R30,1
0007e5 d7c9      	RCALL __EEPROMWRW
0007e6 e0ad      	LDI  R26,LOW(_TO_EEP)
0007e7 e0b1      	LDI  R27,HIGH(_TO_EEP)
0007e8 e0e1      	LDI  R30,LOW(1)
0007e9 d7cd      	RCALL __EEPROMWRB
                 _0x6E:
                 ; 0000 01C4     #asm("sei")
0007ea 9478      	sei
                 ; 0000 01C5 };            //     10
                 _0x6D:
                 ; 0000 01C6 ///////////////////////////////////////////////////////////////////////////////
                 ; 0000 01C7     switch (PositionPointer){
0007eb d523      	RCALL SUBOPT_0xA
0007ec e0f0      	LDI  R31,0
                 ; 0000 01C8     ///////////////////////////////////////////////////////////////////////////////
                 ; 0000 01C9         case 1: //  
0007ed 30e1      	CPI  R30,LOW(0x1)
0007ee e0a0      	LDI  R26,HIGH(0x1)
0007ef 07fa      	CPC  R31,R26
0007f0 f009      	BREQ PC+2
0007f1 c04c      	RJMP _0x72
                 ; 0000 01CA             //if(((up==1)|(up>KEY_SIG_NUM))&(podmenu==1)){#asm("cli") TO_EEP=0; #asm("sei") up=2;}
                 ; 0000 01CB             if(enter>=98){enter=2;LCD_Clear();#asm("cli") TO_EEP=0; #asm("sei") up=2; }
0007f2 d555      	RCALL SUBOPT_0x17
0007f3 36a2      	CPI  R26,LOW(0x62)
0007f4 f040      	BRLO _0x73
0007f5 d567      	RCALL SUBOPT_0x1E
0007f6 94f8      	cli
0007f7 e0ad      	LDI  R26,LOW(_TO_EEP)
0007f8 e0b1      	LDI  R27,HIGH(_TO_EEP)
0007f9 e0e0      	LDI  R30,LOW(0)
0007fa d7bc      	RCALL __EEPROMWRB
0007fb 9478      	sei
0007fc d5fd      	RCALL SUBOPT_0x3F
                 ; 0000 01CC 
                 ; 0000 01CD             AvtRu=0; //  ,        -   
                 _0x73:
0007fd e0e0      	LDI  R30,LOW(0)
0007fe 93e0 0187 	STS  _AvtRu_G000,R30
                 ; 0000 01CE             if(podsvet>=1){
000800 91a0 018c 	LDS  R26,_podsvet_G000
000802 30a1      	CPI  R26,LOW(0x1)
000803 f038      	BRLO _0x74
                 ; 0000 01CF                 sprintf(buff," 1:     ");
000804 d58f      	RCALL SUBOPT_0x2B
                +
000805 e5e8     +LDI R30 , LOW ( 2 * _0x0 + ( 198 ) )
000806 e0f5     +LDI R31 , HIGH ( 2 * _0x0 + ( 198 ) )
                 	__POINTW1FN _0x0,198
000807 d5e1      	RCALL SUBOPT_0x3A
                 ; 0000 01D0                 ShowBigLine(0);
000808 d5e2      	RCALL SUBOPT_0x3B
                 ; 0000 01D1                 MainInfo();
000809 defd      	RCALL _MainInfo
                 ; 0000 01D2 //            if(podsvet==1){LCD_Clear();podsvet=0;}
                 ; 0000 01D3             }
                 ; 0000 01D4             else
00080a c00a      	RJMP _0x75
                 _0x74:
                 ; 0000 01D5             {
                 ; 0000 01D6                 LCD_Clear();
00080b dca4      	RCALL _LCD_Clear
                 ; 0000 01D7                 sprintf(buff,"$");
00080c d587      	RCALL SUBOPT_0x2B
                +
00080d e6e5     +LDI R30 , LOW ( 2 * _0x0 + ( 211 ) )
00080e e0f5     +LDI R31 , HIGH ( 2 * _0x0 + ( 211 ) )
                 	__POINTW1FN _0x0,211
00080f d5d9      	RCALL SUBOPT_0x3A
                 ; 0000 01D8                 ShowBigLine(0);
000810 d5da      	RCALL SUBOPT_0x3B
                 ; 0000 01D9                 delay_ms(100);
000811 e6a4      	LDI  R26,LOW(100)
000812 e0b0      	LDI  R27,0
000813 d6d8      	RCALL _delay_ms
                 ; 0000 01DA                 LCD_init();
000814 dc21      	RCALL _LCD_init
                 ; 0000 01DB             }
                 _0x75:
                 ; 0000 01DC 
                 ; 0000 01DD             if ((U1<U1_MIN)||(U1>U1_MAX)){  //    175-80%   265
000815 d5e6      	RCALL SUBOPT_0x40
000816 38ac      	CPI  R26,LOW(0x8C)
000817 e0e0      	LDI  R30,HIGH(0x8C)
000818 07be      	CPC  R27,R30
000819 f010      	BRLO _0x77
00081a d5e6      	RCALL SUBOPT_0x41
00081b f108      	BRLO _0x76
                 _0x77:
                 ; 0000 01DE //   !!!
                 ; 0000 01DF                 if(U1>U1_MAX){LINE_REL=1;}   //        !!!
00081c d5e4      	RCALL SUBOPT_0x41
00081d f008      	BRLO _0x79
00081e 9a93      	SBI  0x12,3
                 ; 0000 01E0                 temp=t1;  //     
                 _0x79:
00081f 91e0 017f 	LDS  R30,_t1_G000
000821 d5e4      	RCALL SUBOPT_0x42
                 ; 0000 01E1                 while (temp!=0)
                 _0x7C:
000822 d5e5      	RCALL SUBOPT_0x43
000823 f061      	BREQ _0x7E
                 ; 0000 01E2                 {
                 ; 0000 01E3                     sprintf(buff,"  HET CET! "); ShowBigLine(3);
000824 d56f      	RCALL SUBOPT_0x2B
                +
000825 e6e7     +LDI R30 , LOW ( 2 * _0x0 + ( 213 ) )
000826 e0f5     +LDI R31 , HIGH ( 2 * _0x0 + ( 213 ) )
                 	__POINTW1FN _0x0,213
000827 d5c1      	RCALL SUBOPT_0x3A
000828 d5e2      	RCALL SUBOPT_0x44
                 ; 0000 01E4                     sprintf(buff,"    %3.uc   ",temp);ShowBigLine(5);
000829 d5e4      	RCALL SUBOPT_0x45
                 ; 0000 01E5                     delay_ms(ONE_SECOND);
                 ; 0000 01E6                     if(PositionPointer!=1){goto begin;}
00082a d4d5      	RCALL SUBOPT_0x6
00082b 30a1      	CPI  R26,LOW(0x1)
00082c f009      	BREQ _0x7F
00082d c2c4      	RJMP _0x80
                 ; 0000 01E7                     temp--;
                 _0x7F:
00082e d575      	RCALL SUBOPT_0x2D
                 ; 0000 01E8                 }
00082f cff2      	RJMP _0x7C
                 _0x7E:
                 ; 0000 01E9                 if ((U1<U1_MIN-5)||(U1>U1_MAX+5)){PositionPointer=30; KilkistZapuskiv=KilkistZapuskiv_EEP;};
000830 d5cb      	RCALL SUBOPT_0x40
000831 38a7      	CPI  R26,LOW(0x87)
000832 e0e0      	LDI  R30,HIGH(0x87)
000833 07be      	CPC  R27,R30
000834 f028      	BRLO _0x82
000835 d5c6      	RCALL SUBOPT_0x40
000836 30af      	CPI  R26,LOW(0x10F)
000837 e0e1      	LDI  R30,HIGH(0x10F)
000838 07be      	CPC  R27,R30
000839 f018      	BRLO _0x81
                 _0x82:
00083a e1ee      	LDI  R30,LOW(30)
00083b d4f1      	RCALL SUBOPT_0x10
00083c d501      	RCALL SUBOPT_0x14
                 _0x81:
                 ; 0000 01EA                 //      ?, .
                 ; 0000 01EB                 //  
                 ; 0000 01EC             }
                 ; 0000 01ED         break;
                 _0x76:
00083d c2b4      	RJMP _0x71
                 ; 0000 01EE     ///////////////////////////////////////////////////////////////////////////////
                 ; 0000 01EF         case 2: //
                 _0x72:
00083e 30e2      	CPI  R30,LOW(0x2)
00083f e0a0      	LDI  R26,HIGH(0x2)
000840 07fa      	CPC  R31,R26
000841 f469      	BRNE _0x84
                 ; 0000 01F0             AvtRu=1; //  ,        -   
000842 e0e1      	LDI  R30,LOW(1)
000843 93e0 0187 	STS  _AvtRu_G000,R30
                 ; 0000 01F1             sprintf(buff," 2:  ");            ShowBigLine(0);
000845 d54e      	RCALL SUBOPT_0x2B
                +
000846 e8e1     +LDI R30 , LOW ( 2 * _0x0 + ( 239 ) )
000847 e0f5     +LDI R31 , HIGH ( 2 * _0x0 + ( 239 ) )
                 	__POINTW1FN _0x0,239
000848 d5a0      	RCALL SUBOPT_0x3A
000849 d5a1      	RCALL SUBOPT_0x3B
                 ; 0000 01F2             MainInfo();
00084a debc      	RCALL _MainInfo
                 ; 0000 01F3             if (U1>U1_MAX)
00084b d5b5      	RCALL SUBOPT_0x41
00084c f008      	BRLO _0x85
                 ; 0000 01F4             {
                 ; 0000 01F5                 PositionPointer=42;//   
00084d d5c3      	RCALL SUBOPT_0x46
                 ; 0000 01F6                 Klapan_off();
                 ; 0000 01F7                 LINE_REL=1; //       !!!
                 ; 0000 01F8                 LCD_Clear();
                 ; 0000 01F9             }
                 ; 0000 01FA         break;
                 _0x85:
00084e c2a3      	RJMP _0x71
                 ; 0000 01FB     ///////////////////////////////////////////////////////////////////////////////
                 ; 0000 01FC         case 3: //
                 _0x84:
00084f 30e3      	CPI  R30,LOW(0x3)
000850 e0a0      	LDI  R26,HIGH(0x3)
000851 07fa      	CPC  R31,R26
000852 f451      	BRNE _0x88
                 ; 0000 01FD             sprintf(buff," 3:    ");            ShowBigLine(0);
000853 d540      	RCALL SUBOPT_0x2B
                +
000854 e8ed     +LDI R30 , LOW ( 2 * _0x0 + ( 251 ) )
000855 e0f5     +LDI R31 , HIGH ( 2 * _0x0 + ( 251 ) )
                 	__POINTW1FN _0x0,251
000856 d592      	RCALL SUBOPT_0x3A
000857 d593      	RCALL SUBOPT_0x3B
                 ; 0000 01FE             MainInfo();
000858 deae      	RCALL _MainInfo
                 ; 0000 01FF 
                 ; 0000 0200 /*
                 ; 0000 0201 //            sprintf(buff," t4  =%4.uc",t4); ShowBigLine(3);
                 ; 0000 0202             sprintf(buff,"%4.uB %2.u.%1.uB",U1,U_Bat/10,U_Bat%10);ShowBigLine(3);
                 ; 0000 0203             if (T<0){  sprintf(buff,"  T =-%3.i*C ",-T);}
                 ; 0000 0204                 else{  sprintf(buff,"  T = %3.i*C ",T);};
                 ; 0000 0205             if (T<-25){sprintf(buff,"  T = n/c   ");};  ShowBigLine(5);
                 ; 0000 0206 */
                 ; 0000 0207 
                 ; 0000 0208             if (U1>U1_MAX)
000859 d5a7      	RCALL SUBOPT_0x41
00085a f008      	BRLO _0x89
                 ; 0000 0209             {
                 ; 0000 020A                 PositionPointer=42;//   
00085b d5b5      	RCALL SUBOPT_0x46
                 ; 0000 020B                 Klapan_off();
                 ; 0000 020C                 LINE_REL=1; //       !!!
                 ; 0000 020D                 LCD_Clear();
                 ; 0000 020E             }
                 ; 0000 020F         break;
                 _0x89:
00085c c295      	RJMP _0x71
                 ; 0000 0210   ///////////////////////////////////////////////////////////////////////////////
                 ; 0000 0211         case 10: //    
                 _0x88:
00085d 30ea      	CPI  R30,LOW(0xA)
00085e e0a0      	LDI  R26,HIGH(0xA)
00085f 07fa      	CPC  R31,R26
000860 f589      	BRNE _0x8C
                 ; 0000 0212             sprintf(buff,"  ");            ShowBigLine(0);
000861 d532      	RCALL SUBOPT_0x2B
                +
000862 e9e9     +LDI R30 , LOW ( 2 * _0x0 + ( 263 ) )
000863 e0f5     +LDI R31 , HIGH ( 2 * _0x0 + ( 263 ) )
                 	__POINTW1FN _0x0,263
000864 d584      	RCALL SUBOPT_0x3A
000865 d585      	RCALL SUBOPT_0x3B
                 ; 0000 0213             sprintf(buff,"                      "); ShowLine(5);
000866 d52d      	RCALL SUBOPT_0x2B
                +
000867 ecea     +LDI R30 , LOW ( 2 * _0x0 + ( 56 ) )
000868 e0f4     +LDI R31 , HIGH ( 2 * _0x0 + ( 56 ) )
                 	__POINTW1FN _0x0,56
000869 d57f      	RCALL SUBOPT_0x3A
00086a e0a5      	LDI  R26,LOW(5)
00086b dcfa      	RCALL _ShowLine
                 ; 0000 0214             sprintf(buff," t4  =%4.uc ",t4); ShowBigLine(3);
00086c d527      	RCALL SUBOPT_0x2B
                +
00086d eae5     +LDI R30 , LOW ( 2 * _0x0 + ( 275 ) )
00086e e0f5     +LDI R31 , HIGH ( 2 * _0x0 + ( 275 ) )
                 	__POINTW1FN _0x0,275
00086f d480      	RCALL SUBOPT_0x2
000870 d4e0      	RCALL SUBOPT_0x1A
000871 d5a4      	RCALL SUBOPT_0x47
000872 d598      	RCALL SUBOPT_0x44
                 ; 0000 0215             sprintf(buff,"       "); ShowLine(INFOLINE1);
                +
000873 ebe2     +LDI R30 , LOW ( 2 * _0x0 + ( 288 ) )
000874 e0f5     +LDI R31 , HIGH ( 2 * _0x0 + ( 288 ) )
                 	__POINTW1FN _0x0,288
000875 d573      	RCALL SUBOPT_0x3A
000876 d567      	RCALL SUBOPT_0x36
                 ; 0000 0216 //            sprintf(buff,"                 "); ShowLine(INFOLINE2);
                 ; 0000 0217             if(((up==1)|(up>KEY_SIG_NUM))&(podmenu==1)){t4++;up=2;}
000877 d4cc      	RCALL SUBOPT_0x15
000878 d5a2      	RCALL SUBOPT_0x48
000879 f021      	BREQ _0x8D
00087a d4d6      	RCALL SUBOPT_0x1A
00087b 5fef      	SUBI R30,-LOW(1)
00087c d563      	RCALL SUBOPT_0x37
00087d d57c      	RCALL SUBOPT_0x3F
                 ; 0000 0218             if(((down==1)|(down>KEY_SIG_NUM))&(podmenu==1)){t4--;down=2;}
                 _0x8D:
00087e d4c7      	RCALL SUBOPT_0x16
00087f d5a4      	RCALL SUBOPT_0x49
000880 f021      	BREQ _0x8E
000881 d4cf      	RCALL SUBOPT_0x1A
000882 50e1      	SUBI R30,LOW(1)
000883 d55c      	RCALL SUBOPT_0x37
000884 d5a8      	RCALL SUBOPT_0x4A
                 ; 0000 0219             if(t4>60){t4=60;}
                 _0x8E:
000885 91a0 0182 	LDS  R26,_t4_G000
000887 33ad      	CPI  R26,LOW(0x3D)
000888 f010      	BRLO _0x8F
000889 e3ec      	LDI  R30,LOW(60)
00088a d555      	RCALL SUBOPT_0x37
                 ; 0000 021A             if(t4<1){t4=1;}
                 _0x8F:
00088b 91a0 0182 	LDS  R26,_t4_G000
00088d 30a1      	CPI  R26,LOW(0x1)
00088e f410      	BRSH _0x90
00088f e0e1      	LDI  R30,LOW(1)
000890 d54f      	RCALL SUBOPT_0x37
                 ; 0000 021B           break;
                 _0x90:
000891 c260      	RJMP _0x71
                 ; 0000 021C     ///////////////////////////////////////////////////////////////////////////////
                 ; 0000 021D         case 11: //   t5=t6
                 _0x8C:
000892 30eb      	CPI  R30,LOW(0xB)
000893 e0a0      	LDI  R26,HIGH(0xB)
000894 07fa      	CPC  R31,R26
000895 f531      	BRNE _0x91
                 ; 0000 021E             sprintf(buff," t5  =%4.uc ",t5);         ShowBigLine(3);
000896 d4fd      	RCALL SUBOPT_0x2B
                +
000897 ece9     +LDI R30 , LOW ( 2 * _0x0 + ( 311 ) )
000898 e0f5     +LDI R31 , HIGH ( 2 * _0x0 + ( 311 ) )
                 	__POINTW1FN _0x0,311
000899 d456      	RCALL SUBOPT_0x2
00089a d4b9      	RCALL SUBOPT_0x1B
00089b d57a      	RCALL SUBOPT_0x47
00089c d56e      	RCALL SUBOPT_0x44
                 ; 0000 021F //            sprintf(buff,"         "); ShowLine(INFOLINE1);
                 ; 0000 0220             sprintf(buff,"    "); ShowLine(INFOLINE1);
                +
00089d ede6     +LDI R30 , LOW ( 2 * _0x0 + ( 324 ) )
00089e e0f5     +LDI R31 , HIGH ( 2 * _0x0 + ( 324 ) )
                 	__POINTW1FN _0x0,324
00089f d549      	RCALL SUBOPT_0x3A
0008a0 d53d      	RCALL SUBOPT_0x36
                 ; 0000 0221             if(((up==1)|(up>KEY_SIG_NUM))&(podmenu==1)){t5=t5+5;up=2;}
0008a1 d4a2      	RCALL SUBOPT_0x15
0008a2 d578      	RCALL SUBOPT_0x48
0008a3 f021      	BREQ _0x92
0008a4 d4af      	RCALL SUBOPT_0x1B
0008a5 5feb      	SUBI R30,-LOW(5)
0008a6 d53c      	RCALL SUBOPT_0x38
0008a7 d552      	RCALL SUBOPT_0x3F
                 ; 0000 0222             if(((down==1)|(down>KEY_SIG_NUM))&(podmenu==1)){t5=t5-5;down=2;}
                 _0x92:
0008a8 d49d      	RCALL SUBOPT_0x16
0008a9 d57a      	RCALL SUBOPT_0x49
0008aa f021      	BREQ _0x93
0008ab d4a8      	RCALL SUBOPT_0x1B
0008ac 50e5      	SUBI R30,LOW(5)
0008ad d535      	RCALL SUBOPT_0x38
0008ae d57e      	RCALL SUBOPT_0x4A
                 ; 0000 0223             if(t5>60){t5=60;}
                 _0x93:
0008af 91a0 0183 	LDS  R26,_t5_G000
0008b1 33ad      	CPI  R26,LOW(0x3D)
0008b2 f010      	BRLO _0x94
0008b3 e3ec      	LDI  R30,LOW(60)
0008b4 d52e      	RCALL SUBOPT_0x38
                 ; 0000 0224             if(t5<5){t5=5;}
                 _0x94:
0008b5 91a0 0183 	LDS  R26,_t5_G000
0008b7 30a5      	CPI  R26,LOW(0x5)
0008b8 f410      	BRSH _0x95
0008b9 e0e5      	LDI  R30,LOW(5)
0008ba d528      	RCALL SUBOPT_0x38
                 ; 0000 0225         break;
                 _0x95:
0008bb c236      	RJMP _0x71
                 ; 0000 0226     ///////////////////////////////////////////////////////////////////////////////
                 ; 0000 0227         case 12: //      (   )
                 _0x91:
0008bc 30ec      	CPI  R30,LOW(0xC)
0008bd e0a0      	LDI  R26,HIGH(0xC)
0008be 07fa      	CPC  R31,R26
0008bf f531      	BRNE _0x96
                 ; 0000 0228             sprintf(buff," Tz  =%3.u*C ",TminZ);      ShowBigLine(3);
0008c0 d4d3      	RCALL SUBOPT_0x2B
                +
0008c1 eeed     +LDI R30 , LOW ( 2 * _0x0 + ( 347 ) )
0008c2 e0f5     +LDI R31 , HIGH ( 2 * _0x0 + ( 347 ) )
                 	__POINTW1FN _0x0,347
0008c3 d42c      	RCALL SUBOPT_0x2
0008c4 d492      	RCALL SUBOPT_0x1C
0008c5 d550      	RCALL SUBOPT_0x47
0008c6 d544      	RCALL SUBOPT_0x44
                 ; 0000 0229 //            sprintf(buff,"   a.    "); ShowLine(INFOLINE1);
                 ; 0000 022A //            sprintf(buff,"       "); ShowLine(INFOLINE2);
                 ; 0000 022B             sprintf(buff," ..  "); ShowLine(INFOLINE1);
                +
0008c7 efeb     +LDI R30 , LOW ( 2 * _0x0 + ( 361 ) )
0008c8 e0f5     +LDI R31 , HIGH ( 2 * _0x0 + ( 361 ) )
                 	__POINTW1FN _0x0,361
0008c9 d51f      	RCALL SUBOPT_0x3A
0008ca d513      	RCALL SUBOPT_0x36
                 ; 0000 022C             if(((up==1)|(up>KEY_SIG_NUM))&(podmenu==1)){TminZ=TminZ+5;up=2;}
0008cb d478      	RCALL SUBOPT_0x15
0008cc d54e      	RCALL SUBOPT_0x48
0008cd f021      	BREQ _0x97
0008ce d488      	RCALL SUBOPT_0x1C
0008cf 5feb      	SUBI R30,-LOW(5)
0008d0 d515      	RCALL SUBOPT_0x39
0008d1 d528      	RCALL SUBOPT_0x3F
                 ; 0000 022D             if(((down==1)|(down>KEY_SIG_NUM))&(podmenu==1)){TminZ=TminZ-5;down=2;}
                 _0x97:
0008d2 d473      	RCALL SUBOPT_0x16
0008d3 d550      	RCALL SUBOPT_0x49
0008d4 f021      	BREQ _0x98
0008d5 d481      	RCALL SUBOPT_0x1C
0008d6 50e5      	SUBI R30,LOW(5)
0008d7 d50e      	RCALL SUBOPT_0x39
0008d8 d554      	RCALL SUBOPT_0x4A
                 ; 0000 022E             if(TminZ>90){TminZ=90;}
                 _0x98:
0008d9 91a0 0184 	LDS  R26,_TminZ_G000
0008db 35ab      	CPI  R26,LOW(0x5B)
0008dc f010      	BRLO _0x99
0008dd e5ea      	LDI  R30,LOW(90)
0008de d507      	RCALL SUBOPT_0x39
                 ; 0000 022F             if(TminZ<5){TminZ=5;}
                 _0x99:
0008df 91a0 0184 	LDS  R26,_TminZ_G000
0008e1 30a5      	CPI  R26,LOW(0x5)
0008e2 f410      	BRSH _0x9A
0008e3 e0e5      	LDI  R30,LOW(5)
0008e4 d501      	RCALL SUBOPT_0x39
                 ; 0000 0230         break;
                 _0x9A:
0008e5 c20c      	RJMP _0x71
                 ; 0000 0231     ///////////////////////////////////////////////////////////////////////////////
                 ; 0000 0232         case 13: //
                 _0x96:
0008e6 30ed      	CPI  R30,LOW(0xD)
0008e7 e0a0      	LDI  R26,HIGH(0xD)
0008e8 07fa      	CPC  R31,R26
0008e9 f519      	BRNE _0x9B
                 ; 0000 0233             sprintf(buff," Kz  =%4.u ",KilkistZapuskiv); ShowBigLine(3);
0008ea d4a9      	RCALL SUBOPT_0x2B
                +
0008eb e1e2     +LDI R30 , LOW ( 2 * _0x0 + ( 384 ) )
0008ec e0f6     +LDI R31 , HIGH ( 2 * _0x0 + ( 384 ) )
                 	__POINTW1FN _0x0,384
0008ed d402      	RCALL SUBOPT_0x2
0008ee d46b      	RCALL SUBOPT_0x1D
0008ef d526      	RCALL SUBOPT_0x47
0008f0 d51a      	RCALL SUBOPT_0x44
                 ; 0000 0234 //            sprintf(buff,"     "); ShowLine(INFOLINE1);
                 ; 0000 0235 //          sprintf(buff,"   .  "); ShowLine(INFOLINE2);
                 ; 0000 0236             sprintf(buff,"    "); ShowLine(INFOLINE1);
                +
0008f1 e1ee     +LDI R30 , LOW ( 2 * _0x0 + ( 396 ) )
0008f2 e0f6     +LDI R31 , HIGH ( 2 * _0x0 + ( 396 ) )
                 	__POINTW1FN _0x0,396
0008f3 d4f5      	RCALL SUBOPT_0x3A
0008f4 d4e9      	RCALL SUBOPT_0x36
                 ; 0000 0237             if(((up==1)|(up>KEY_SIG_NUM))&(podmenu==1)){KilkistZapuskiv++;up=2;}
0008f5 d44e      	RCALL SUBOPT_0x15
0008f6 d524      	RCALL SUBOPT_0x48
0008f7 f021      	BREQ _0x9C
0008f8 d461      	RCALL SUBOPT_0x1D
0008f9 5fef      	SUBI R30,-LOW(1)
0008fa d534      	RCALL SUBOPT_0x4B
0008fb d4fe      	RCALL SUBOPT_0x3F
                 ; 0000 0238             if(((down==1)|(down>KEY_SIG_NUM))&(podmenu==1)){KilkistZapuskiv--;down=2;}
                 _0x9C:
0008fc d449      	RCALL SUBOPT_0x16
0008fd d526      	RCALL SUBOPT_0x49
0008fe f021      	BREQ _0x9D
0008ff d45a      	RCALL SUBOPT_0x1D
000900 50e1      	SUBI R30,LOW(1)
000901 d52d      	RCALL SUBOPT_0x4B
000902 d52a      	RCALL SUBOPT_0x4A
                 ; 0000 0239             if(KilkistZapuskiv>6){KilkistZapuskiv=6;}
                 _0x9D:
000903 d52e      	RCALL SUBOPT_0x4C
000904 30a7      	CPI  R26,LOW(0x7)
000905 f010      	BRLO _0x9E
000906 e0e6      	LDI  R30,LOW(6)
000907 d527      	RCALL SUBOPT_0x4B
                 ; 0000 023A             if(KilkistZapuskiv<1){KilkistZapuskiv=1;}
                 _0x9E:
000908 d52c      	RCALL SUBOPT_0x4D
000909 f410      	BRSH _0x9F
00090a e0e1      	LDI  R30,LOW(1)
00090b d523      	RCALL SUBOPT_0x4B
                 ; 0000 023B         break;
                 _0x9F:
00090c c1e5      	RJMP _0x71
                 ; 0000 023C     ///////////////////////////////////////////////////////////////////////////////
                 ; 0000 023D         case 14: //
                 _0x9B:
00090d 30ee      	CPI  R30,LOW(0xE)
00090e e0a0      	LDI  R26,HIGH(0xE)
00090f 07fa      	CPC  R31,R26
000910 f4f1      	BRNE _0xA0
                 ; 0000 023E             if(z==0){sprintf(buff," <> ");}
000911 fc20      	SBRC R2,0
000912 c004      	RJMP _0xA1
000913 d480      	RCALL SUBOPT_0x2B
                +
000914 e3e5     +LDI R30 , LOW ( 2 * _0x0 + ( 419 ) )
000915 e0f6     +LDI R31 , HIGH ( 2 * _0x0 + ( 419 ) )
                 	__POINTW1FN _0x0,419
000916 c003      	RJMP _0x117
                 ; 0000 023F             else{sprintf(buff," <  > ");}
                 _0xA1:
000917 d47c      	RCALL SUBOPT_0x2B
                +
000918 e4e2     +LDI R30 , LOW ( 2 * _0x0 + ( 432 ) )
000919 e0f6     +LDI R31 , HIGH ( 2 * _0x0 + ( 432 ) )
                 	__POINTW1FN _0x0,432
                 _0x117:
00091a 93fa      	ST   -Y,R31
00091b 93ea      	ST   -Y,R30
00091c d4ad      	RCALL SUBOPT_0x32
                 ; 0000 0240             ShowBigLine(3);
00091d d4ed      	RCALL SUBOPT_0x44
                 ; 0000 0241             sprintf(buff,"            "); ShowLine(INFOLINE1);
                +
00091e e4ef     +LDI R30 , LOW ( 2 * _0x0 + ( 445 ) )
00091f e0f6     +LDI R31 , HIGH ( 2 * _0x0 + ( 445 ) )
                 	__POINTW1FN _0x0,445
000920 d4c8      	RCALL SUBOPT_0x3A
000921 d4bc      	RCALL SUBOPT_0x36
                 ; 0000 0242 //            sprintf(buff,"             "); ShowLine(INFOLINE2);
                 ; 0000 0243             if(((up==1)|(up>KEY_SIG_NUM))&(podmenu==1)){z=!z;up=2;}
000922 d421      	RCALL SUBOPT_0x15
000923 d4f7      	RCALL SUBOPT_0x48
000924 f019      	BREQ _0xA3
000925 e0e1      	LDI  R30,LOW(1)
000926 d424      	RCALL SUBOPT_0x18
000927 d43b      	RCALL SUBOPT_0x20
                 ; 0000 0244             if(((down==1)|(down>KEY_SIG_NUM))&(podmenu==1)){z=!z;down=2;}
                 _0xA3:
000928 d41d      	RCALL SUBOPT_0x16
000929 d4fa      	RCALL SUBOPT_0x49
00092a f019      	BREQ _0xA4
00092b e0e1      	LDI  R30,LOW(1)
00092c d41e      	RCALL SUBOPT_0x18
00092d d43c      	RCALL SUBOPT_0x22
                 ; 0000 0245         break;
                 _0xA4:
00092e c1c3      	RJMP _0x71
                 ; 0000 0246     ///////////////////////////////////////////////////////////////////////////////
                 ; 0000 0247         case 15: //
                 _0xA0:
00092f 30ef      	CPI  R30,LOW(0xF)
000930 e0a0      	LDI  R26,HIGH(0xF)
000931 07fa      	CPC  R31,R26
000932 f4f1      	BRNE _0xA5
                 ; 0000 0248             if(r==0){sprintf(buff," (off)");}
000933 fc21      	SBRC R2,1
000934 c004      	RJMP _0xA6
000935 d45e      	RCALL SUBOPT_0x2B
                +
000936 e6e6     +LDI R30 , LOW ( 2 * _0x0 + ( 468 ) )
000937 e0f6     +LDI R31 , HIGH ( 2 * _0x0 + ( 468 ) )
                 	__POINTW1FN _0x0,468
000938 c003      	RJMP _0x118
                 ; 0000 0249             else{sprintf(buff," (on) ");}
                 _0xA6:
000939 d45a      	RCALL SUBOPT_0x2B
                +
00093a e7e2     +LDI R30 , LOW ( 2 * _0x0 + ( 480 ) )
00093b e0f6     +LDI R31 , HIGH ( 2 * _0x0 + ( 480 ) )
                 	__POINTW1FN _0x0,480
                 _0x118:
00093c 93fa      	ST   -Y,R31
00093d 93ea      	ST   -Y,R30
00093e d48b      	RCALL SUBOPT_0x32
                 ; 0000 024A             ShowBigLine(3);
00093f d4cb      	RCALL SUBOPT_0x44
                 ; 0000 024B //            sprintf(buff,"              "); ShowLine(INFOLINE1);
                 ; 0000 024C             sprintf(buff,"    : ''   "); ShowLine(INFOLINE1);
                +
000940 e7ee     +LDI R30 , LOW ( 2 * _0x0 + ( 492 ) )
000941 e0f6     +LDI R31 , HIGH ( 2 * _0x0 + ( 492 ) )
                 	__POINTW1FN _0x0,492
000942 d4a6      	RCALL SUBOPT_0x3A
000943 d49a      	RCALL SUBOPT_0x36
                 ; 0000 024D             if(((up==1)|(up>KEY_SIG_NUM))&(podmenu==1)){r=!r;up=2;}
000944 d3ff      	RCALL SUBOPT_0x15
000945 d4d5      	RCALL SUBOPT_0x48
000946 f019      	BREQ _0xA8
000947 e0e2      	LDI  R30,LOW(2)
000948 d402      	RCALL SUBOPT_0x18
000949 d419      	RCALL SUBOPT_0x20
                 ; 0000 024E             if(((down==1)|(down>KEY_SIG_NUM))&(podmenu==1)){r=!r;down=2;}
                 _0xA8:
00094a d3fb      	RCALL SUBOPT_0x16
00094b d4d8      	RCALL SUBOPT_0x49
00094c f019      	BREQ _0xA9
00094d e0e2      	LDI  R30,LOW(2)
00094e d3fc      	RCALL SUBOPT_0x18
00094f d41a      	RCALL SUBOPT_0x22
                 ; 0000 024F         break;
                 _0xA9:
000950 c1a1      	RJMP _0x71
                 ; 0000 0250 
                 ; 0000 0251     ///////////////////////////////////////////////////////////////////////////////
                 ; 0000 0252 /*        case 16: //
                 ; 0000 0253             if(TO_EEP==0){sprintf(buff,"  TO  ( 0 )");}
                 ; 0000 0254             else{         sprintf(buff,"  TO  ( 1 )");}
                 ; 0000 0255             ShowBigLine(3);
                 ; 0000 0256 
                 ; 0000 0257 //            sprintf(buff,"              "); ShowLine(INFOLINE1);
                 ; 0000 0258 //            sprintf(buff,"      N:%6.uh       ",NarabotkaEEP/6);
                 ; 0000 0259             sprintf(buff,":'TO'  N:%5.uh ",NarabotkaEEP/6); ShowLine(INFOLINE1);
                 ; 0000 025A //            sprintf(buff,"    : ' TO  '   "); ShowLine(INFOLINE1);
                 ; 0000 025B             if(((up==1)|(up>KEY_SIG_NUM))&(podmenu==1)){#asm("cli") TO_EEP=0; #asm("sei") up=2;}
                 ; 0000 025C             if(((down==1)|(down>KEY_SIG_NUM))&(podmenu==1)){#asm("cli") TO_EEP=0; #asm("sei")down=2;}
                 ; 0000 025D         break;
                 ; 0000 025E */
                 ; 0000 025F     ///////////////////////////////////////////////////////////////////////////////
                 ; 0000 0260         case 16: //
                 _0xA5:
000951 31e0      	CPI  R30,LOW(0x10)
000952 e0a0      	LDI  R26,HIGH(0x10)
000953 07fa      	CPC  R31,R26
000954 f451      	BRNE _0xAA
                 ; 0000 0261             sprintf(buff," -  - ");            ShowBigLine(3);
000955 d43e      	RCALL SUBOPT_0x2B
                +
000956 e9e5     +LDI R30 , LOW ( 2 * _0x0 + ( 515 ) )
000957 e0f6     +LDI R31 , HIGH ( 2 * _0x0 + ( 515 ) )
                 	__POINTW1FN _0x0,515
000958 d490      	RCALL SUBOPT_0x3A
000959 d4b1      	RCALL SUBOPT_0x44
                 ; 0000 0262 //            sprintf(buff,"             "); ShowLine(INFOLINE1);
                 ; 0000 0263 //            sprintf(buff,"     ''  "); ShowLine(INFOLINE2);
                 ; 0000 0264             sprintf(buff,"    >''  "); ShowLine(INFOLINE1);
                +
00095a eae1     +LDI R30 , LOW ( 2 * _0x0 + ( 527 ) )
00095b e0f6     +LDI R31 , HIGH ( 2 * _0x0 + ( 527 ) )
                 	__POINTW1FN _0x0,527
00095c d48c      	RCALL SUBOPT_0x3A
00095d d480      	RCALL SUBOPT_0x36
                 ; 0000 0265 
                 ; 0000 0266 //            sprintf(buff,"%2.u",enter);
                 ; 0000 0267 //            ShowLine(4);
                 ; 0000 0268 
                 ; 0000 0269         break;
00095e c193      	RJMP _0x71
                 ; 0000 026A     ///////////////////////////////////////////////////////////////////////////////
                 ; 0000 026B         case 30: //
                 _0xAA:
00095f 31ee      	CPI  R30,LOW(0x1E)
000960 e0a0      	LDI  R26,HIGH(0x1E)
000961 07fa      	CPC  R31,R26
000962 f009      	BREQ PC+2
000963 c075      	RJMP _0xAB
                 ; 0000 026C             LCD_Clear();
000964 db4b      	RCALL _LCD_Clear
                 ; 0000 026D             sprintf(buff,"   %1.u ",KilkistZapuskiv);           ShowBigLine(0);
000965 d42e      	RCALL SUBOPT_0x2B
                +
000966 ebe8     +LDI R30 , LOW ( 2 * _0x0 + ( 550 ) )
000967 e0f6     +LDI R31 , HIGH ( 2 * _0x0 + ( 550 ) )
                 	__POINTW1FN _0x0,550
000968 d387      	RCALL SUBOPT_0x2
000969 d3f0      	RCALL SUBOPT_0x1D
00096a d4ab      	RCALL SUBOPT_0x47
00096b d47f      	RCALL SUBOPT_0x3B
                 ; 0000 026E             delay_ms(ONE_SECOND);
00096c d4cb      	RCALL SUBOPT_0x4E
                 ; 0000 026F             sprintf(buff,"   ");           ShowBigLine(3);
00096d d426      	RCALL SUBOPT_0x2B
                +
00096e ece7     +LDI R30 , LOW ( 2 * _0x0 + ( 565 ) )
00096f e0f6     +LDI R31 , HIGH ( 2 * _0x0 + ( 565 ) )
                 	__POINTW1FN _0x0,565
000970 d478      	RCALL SUBOPT_0x3A
000971 d4c9      	RCALL SUBOPT_0x4F
                 ; 0000 0270             ON_REL=1;      //  OUT7
000972 9a94      	SBI  0x12,4
                 ; 0000 0271             if(T<TminZ){
000973 d4c9      	RCALL SUBOPT_0x50
000974 f48c      	BRGE _0xAE
                 ; 0000 0272                 VALVE_U_REL=1;
000975 9a96      	SBI  0x12,6
                 ; 0000 0273                 delay_ms(ONE_SECOND);
000976 d4c1      	RCALL SUBOPT_0x4E
                 ; 0000 0274                 if(z==0)
000977 fc20      	SBRC R2,0
000978 c007      	RJMP _0xB1
                 ; 0000 0275                 {
                 ; 0000 0276                     sprintf(buff," -> "); ShowBigLine(3);
000979 d41a      	RCALL SUBOPT_0x2B
                +
00097a ede4     +LDI R30 , LOW ( 2 * _0x0 + ( 578 ) )
00097b e0f6     +LDI R31 , HIGH ( 2 * _0x0 + ( 578 ) )
                 	__POINTW1FN _0x0,578
00097c d46c      	RCALL SUBOPT_0x3A
00097d d4bd      	RCALL SUBOPT_0x4F
                 ; 0000 0277                     VALVE_U_REL=0;//   
00097e 9896      	CBI  0x12,6
                 ; 0000 0278                 }
                 ; 0000 0279                 else
00097f c005      	RJMP _0xB4
                 _0xB1:
                 ; 0000 027A                 {
                 ; 0000 027B                     sprintf(buff,"  ->  "); ShowBigLine(3);
000980 d413      	RCALL SUBOPT_0x2B
                +
000981 eee1     +LDI R30 , LOW ( 2 * _0x0 + ( 591 ) )
000982 e0f6     +LDI R31 , HIGH ( 2 * _0x0 + ( 591 ) )
                 	__POINTW1FN _0x0,591
000983 d465      	RCALL SUBOPT_0x3A
000984 d4b6      	RCALL SUBOPT_0x4F
                 ; 0000 027C                 }
                 _0xB4:
                 ; 0000 027D                 delay_ms(ONE_SECOND);
000985 d4b2      	RCALL SUBOPT_0x4E
                 ; 0000 027E             };
                 _0xAE:
                 ; 0000 027F             ///////////////////////////////////
                 ; 0000 0280 ////////
                 ; 0000 0281             // !!!!   
                 ; 0000 0282             if(rotor<3){STARTER_REL=1;};//   ,     v1.4)
000986 d3d9      	RCALL SUBOPT_0x1F
000987 30a3      	CPI  R26,LOW(0x3)
000988 f408      	BRSH _0xB5
000989 9ac0      	SBI  0x18,0
                 _0xB5:
                 ; 0000 0283             // !!!!   
                 ; 0000 0284             temp=t3;
00098a 91e0 0181 	LDS  R30,_t3_G000
00098c d479      	RCALL SUBOPT_0x42
                 ; 0000 0285             while (temp!=0)
                 _0xB8:
00098d d47a      	RCALL SUBOPT_0x43
00098e f089      	BREQ _0xBA
                 ; 0000 0286             {
                 ; 0000 0287                 sprintf(buff," :%1.uc ",temp); ShowBigLine(3);
00098f d404      	RCALL SUBOPT_0x2B
                +
000990 eeee     +LDI R30 , LOW ( 2 * _0x0 + ( 604 ) )
000991 e0f6     +LDI R31 , HIGH ( 2 * _0x0 + ( 604 ) )
                 	__POINTW1FN _0x0,604
000992 d4b0      	RCALL SUBOPT_0x51
000993 d446      	RCALL SUBOPT_0x35
000994 d4a6      	RCALL SUBOPT_0x4F
                 ; 0000 0288                 delay_ms(ONE_SECOND);
000995 d4a2      	RCALL SUBOPT_0x4E
                 ; 0000 0289                 temp--;
000996 d40d      	RCALL SUBOPT_0x2D
                 ; 0000 028A                 if(rotor>7){temp=0;};//   -   
000997 d3c8      	RCALL SUBOPT_0x1F
000998 30a8      	CPI  R26,LOW(0x8)
000999 f028      	BRLO _0xBB
00099a e0e0      	LDI  R30,LOW(0)
00099b 93e0 0199 	STS  _temp_G000,R30
00099d 93e0 019a 	STS  _temp_G000+1,R30
                 _0xBB:
                 ; 0000 028B             };
00099f cfed      	RJMP _0xB8
                 _0xBA:
                 ; 0000 028C             STARTER_REL=0;                           //  OUT6  (1-6c)
0009a0 98c0      	CBI  0x18,0
                 ; 0000 028D             ///////////////////////////////////
                 ; 0000 028E             temp=t4;                             //     (5-30)
0009a1 d3af      	RCALL SUBOPT_0x1A
0009a2 d463      	RCALL SUBOPT_0x42
                 ; 0000 028F             if(T<TminZ){
0009a3 d499      	RCALL SUBOPT_0x50
0009a4 f4ec      	BRGE _0xBE
                 ; 0000 0290                 while (temp!=0)
                 _0xBF:
0009a5 d462      	RCALL SUBOPT_0x43
0009a6 f049      	BREQ _0xC1
                 ; 0000 0291                 {
                 ; 0000 0292                     sprintf(buff,":%2.uc ",temp); ShowBigLine(3);
0009a7 d3ec      	RCALL SUBOPT_0x2B
                +
0009a8 efee     +LDI R30 , LOW ( 2 * _0x0 + ( 620 ) )
0009a9 e0f6     +LDI R31 , HIGH ( 2 * _0x0 + ( 620 ) )
                 	__POINTW1FN _0x0,620
0009aa d498      	RCALL SUBOPT_0x51
0009ab d42e      	RCALL SUBOPT_0x35
0009ac d48e      	RCALL SUBOPT_0x4F
                 ; 0000 0293                     delay_ms(ONE_SECOND);
0009ad d48a      	RCALL SUBOPT_0x4E
                 ; 0000 0294                     temp--;
0009ae d3f5      	RCALL SUBOPT_0x2D
                 ; 0000 0295     //                if(T>TminZ){temp=0;}     //   -  
                 ; 0000 0296                 };
0009af cff5      	RJMP _0xBF
                 _0xC1:
                 ; 0000 0297                 ///////////////////////////////////
                 ; 0000 0298                 VALVE_U_REL=0; //     
0009b0 9896      	CBI  0x12,6
                 ; 0000 0299                 if(z==0)
0009b1 fc20      	SBRC R2,0
0009b2 c008      	RJMP _0xC4
                 ; 0000 029A                 {
                 ; 0000 029B                     sprintf(buff,"  < "); ShowBigLine(3);
0009b3 d3e0      	RCALL SUBOPT_0x2B
                +
0009b4 e0ed     +LDI R30 , LOW ( 2 * _0x0 + ( 635 ) )
0009b5 e0f7     +LDI R31 , HIGH ( 2 * _0x0 + ( 635 ) )
                 	__POINTW1FN _0x0,635
0009b6 d432      	RCALL SUBOPT_0x3A
0009b7 d483      	RCALL SUBOPT_0x4F
                 ; 0000 029C                     delay_ms(HALF_SECOND);                           //     
0009b8 d3ce      	RCALL SUBOPT_0x28
                 ; 0000 029D                     VALVE_D_REL=1; //  OUT4   !!!
0009b9 9a97      	SBI  0x12,7
                 ; 0000 029E                 }
                 ; 0000 029F                 else
0009ba c006      	RJMP _0xC7
                 _0xC4:
                 ; 0000 02A0                 {
                 ; 0000 02A1                     sprintf(buff,"  <-  "); ShowBigLine(3);
0009bb d3d8      	RCALL SUBOPT_0x2B
                +
0009bc e1ea     +LDI R30 , LOW ( 2 * _0x0 + ( 648 ) )
0009bd e0f7     +LDI R31 , HIGH ( 2 * _0x0 + ( 648 ) )
                 	__POINTW1FN _0x0,648
0009be d42a      	RCALL SUBOPT_0x3A
0009bf d47b      	RCALL SUBOPT_0x4F
                 ; 0000 02A2                     delay_ms(ONE_SECOND);
0009c0 d477      	RCALL SUBOPT_0x4E
                 ; 0000 02A3                 }
                 _0xC7:
                 ; 0000 02A4                 delay_ms(ONE_SECOND);
0009c1 d476      	RCALL SUBOPT_0x4E
                 ; 0000 02A5             }
                 ; 0000 02A6             VALVE_D_REL=0; //        (  )
                 _0xBE:
0009c2 9897      	CBI  0x12,7
                 ; 0000 02A7             ///////////////////////////////////
                 ; 0000 02A8 
                 ; 0000 02A9 //!!! ///   (  ?)
                 ; 0000 02AA             temp=RAZGON;
0009c3 e0e5      	LDI  R30,LOW(5)
0009c4 e0f0      	LDI  R31,HIGH(5)
0009c5 d3c4      	RCALL SUBOPT_0x29
                 ; 0000 02AB             while (temp!=0){
                 _0xCA:
0009c6 d441      	RCALL SUBOPT_0x43
0009c7 f049      	BREQ _0xCC
                 ; 0000 02AC                    sprintf(buff," :%2.uc ",temp); ShowBigLine(3);
0009c8 d3cb      	RCALL SUBOPT_0x2B
                +
0009c9 e2e7     +LDI R30 , LOW ( 2 * _0x0 + ( 661 ) )
0009ca e0f7     +LDI R31 , HIGH ( 2 * _0x0 + ( 661 ) )
                 	__POINTW1FN _0x0,661
0009cb d477      	RCALL SUBOPT_0x51
0009cc d40d      	RCALL SUBOPT_0x35
0009cd d46d      	RCALL SUBOPT_0x4F
                 ; 0000 02AD                    delay_ms(ONE_SECOND);
0009ce d469      	RCALL SUBOPT_0x4E
                 ; 0000 02AE                    temp--;
0009cf d3d4      	RCALL SUBOPT_0x2D
                 ; 0000 02AF                  };
0009d0 cff5      	RJMP _0xCA
                 _0xCC:
                 ; 0000 02B0             ///////////////////////////////////
                 ; 0000 02B1             if(KilkistZapuskiv>0){KilkistZapuskiv--;};
0009d1 d463      	RCALL SUBOPT_0x4D
0009d2 f018      	BRLO _0xCD
0009d3 d386      	RCALL SUBOPT_0x1D
0009d4 50e1      	SUBI R30,LOW(1)
0009d5 d459      	RCALL SUBOPT_0x4B
                 _0xCD:
                 ; 0000 02B2             PositionPointer=31; //     
0009d6 e1ef      	LDI  R30,LOW(31)
0009d7 d355      	RCALL SUBOPT_0x10
                 ; 0000 02B3        break;
0009d8 c119      	RJMP _0x71
                 ; 0000 02B4     ///////////////////////////////////////////////////////////////////////////////
                 ; 0000 02B5        case 31: //    ,
                 _0xAB:
0009d9 31ef      	CPI  R30,LOW(0x1F)
0009da e0a0      	LDI  R26,HIGH(0x1F)
0009db 07fa      	CPC  R31,R26
0009dc f009      	BREQ PC+2
0009dd c03f      	RJMP _0xCE
                 ; 0000 02B6             LCD_Clear();
0009de dad1      	RCALL _LCD_Clear
                 ; 0000 02B7             if(rotor<3){//  ( )
0009df d380      	RCALL SUBOPT_0x1F
0009e0 30a3      	CPI  R26,LOW(0x3)
0009e1 f4e8      	BRSH _0xCF
                 ; 0000 02B8                 ON_REL=0;              // 
0009e2 9894      	CBI  0x12,4
                 ; 0000 02B9                 if(KilkistZapuskiv>0){
0009e3 d451      	RCALL SUBOPT_0x4D
0009e4 f0a8      	BRLO _0xD2
                 ; 0000 02BA                     sprintf(buff,"   "); ShowBigLine(3);
0009e5 d3ae      	RCALL SUBOPT_0x2B
                +
0009e6 e3e6     +LDI R30 , LOW ( 2 * _0x0 + ( 676 ) )
0009e7 e0f7     +LDI R31 , HIGH ( 2 * _0x0 + ( 676 ) )
                 	__POINTW1FN _0x0,676
0009e8 d400      	RCALL SUBOPT_0x3A
0009e9 d421      	RCALL SUBOPT_0x44
                 ; 0000 02BB                     sprintf(buff,"      "); ShowBigLine(5);
                +
0009ea e4e3     +LDI R30 , LOW ( 2 * _0x0 + ( 689 ) )
0009eb e0f7     +LDI R31 , HIGH ( 2 * _0x0 + ( 689 ) )
                 	__POINTW1FN _0x0,689
0009ec d3fc      	RCALL SUBOPT_0x3A
0009ed e0a5      	LDI  R26,LOW(5)
0009ee db7d      	RCALL _ShowBigLine
                 ; 0000 02BC                     delay_ms(NEXT_ZAPUSK_SECOND);
0009ef e2a0      	LDI  R26,LOW(20000)
0009f0 e4be      	LDI  R27,HIGH(20000)
0009f1 d4fa      	RCALL _delay_ms
                 ; 0000 02BD                       if(KilkistZapuskiv==1){delay_ms(NEXT_ZAPUSK_SECOND);};//   -    ...
0009f2 d442      	RCALL SUBOPT_0x4D
0009f3 f419      	BRNE _0xD3
0009f4 e2a0      	LDI  R26,LOW(20000)
0009f5 e4be      	LDI  R27,HIGH(20000)
0009f6 d4f5      	RCALL _delay_ms
                 _0xD3:
                 ; 0000 02BE                       PositionPointer=30;
0009f7 e1ee      	LDI  R30,LOW(30)
0009f8 d334      	RCALL SUBOPT_0x10
                 ; 0000 02BF                 }
                 ; 0000 02C0                 else  //  
0009f9 c004      	RJMP _0xD4
                 _0xD2:
                 ; 0000 02C1                 {
                 ; 0000 02C2                     PositionPointer=40;     //   "  "
0009fa e2e8      	LDI  R30,LOW(40)
0009fb d331      	RCALL SUBOPT_0x10
                 ; 0000 02C3                     Klapan_off();
0009fc dcf6      	RCALL _Klapan_off
                 ; 0000 02C4                     goto begin;
0009fd c0f4      	RJMP _0x80
                 ; 0000 02C5                 };
                 _0xD4:
                 ; 0000 02C6             }
                 ; 0000 02C7             else // ,   
0009fe c01d      	RJMP _0xD5
                 _0xCF:
                 ; 0000 02C8             {
                 ; 0000 02C9                 if(T<TminN){
0009ff 91e0 0185 	LDS  R30,_TminN_G000
000a01 d3d3      	RCALL SUBOPT_0x34
000a02 e0f0      	LDI  R31,0
000a03 17ae      	CP   R26,R30
000a04 07bf      	CPC  R27,R31
000a05 f46c      	BRGE _0xD6
                 ; 0000 02CA                         temp=t5;     //     
000a06 d34d      	RCALL SUBOPT_0x1B
000a07 d3fe      	RCALL SUBOPT_0x42
                 ; 0000 02CB                         while (temp!=0)
                 _0xD7:
000a08 d3ff      	RCALL SUBOPT_0x43
000a09 f049      	BREQ _0xD9
                 ; 0000 02CC                         { //   ,   (    )
                 ; 0000 02CD                             sprintf(buff,":%2.uc ",temp); ShowBigLine(3);
000a0a d389      	RCALL SUBOPT_0x2B
                +
000a0b efee     +LDI R30 , LOW ( 2 * _0x0 + ( 620 ) )
000a0c e0f6     +LDI R31 , HIGH ( 2 * _0x0 + ( 620 ) )
                 	__POINTW1FN _0x0,620
000a0d d435      	RCALL SUBOPT_0x51
000a0e d3cb      	RCALL SUBOPT_0x35
000a0f d42b      	RCALL SUBOPT_0x4F
                 ; 0000 02CE                             delay_ms(ONE_SECOND);
000a10 d427      	RCALL SUBOPT_0x4E
                 ; 0000 02CF                             temp--;
000a11 d392      	RCALL SUBOPT_0x2D
                 ; 0000 02D0                         };
000a12 cff5      	RJMP _0xD7
                 _0xD9:
                 ; 0000 02D1                  };
                 _0xD6:
                 ; 0000 02D2                  //!!!     ( ,   )
                 ; 0000 02D3                  //     ,    
                 ; 0000 02D4                 ///////////////////////////////////
                 ; 0000 02D5                  if(GEN_OUT_PIN==1){ //    ?  ( : 0 -  )
000a13 9b80      	SBIS 0x10,0
000a14 c004      	RJMP _0xDA
                 ; 0000 02D6                         ON_REL=0;              // 
000a15 d430      	RCALL SUBOPT_0x52
                 ; 0000 02D7                         PositionPointer=41;     //   "   "
                 ; 0000 02D8                         Klapan_off();
                 ; 0000 02D9                         enter=2;
000a16 e0e2      	LDI  R30,LOW(2)
000a17 d336      	RCALL SUBOPT_0x19
                 ; 0000 02DA                         goto begin;
000a18 c0d9      	RJMP _0x80
                 ; 0000 02DB                  };
                 _0xDA:
                 ; 0000 02DC                  PerehodNaGenerator();  //   
000a19 dcd1      	RCALL _PerehodNaGenerator
                 ; 0000 02DD                  PositionPointer=32; //  
000a1a e2e0      	LDI  R30,LOW(32)
000a1b d311      	RCALL SUBOPT_0x10
                 ; 0000 02DE //                 TimeSec=podsvet; PORTD.7=1; //      
                 ; 0000 02DF             };
                 _0xD5:
                 ; 0000 02E0        break;
000a1c c0d5      	RJMP _0x71
                 ; 0000 02E1     ///////////////////////////////////////////////////////////////////////////////
                 ; 0000 02E2         case 32:  //  (  )
                 _0xCE:
000a1d 32e0      	CPI  R30,LOW(0x20)
000a1e e0a0      	LDI  R26,HIGH(0x20)
000a1f 07fa      	CPC  R31,R26
000a20 f5b9      	BRNE _0xDD
                 ; 0000 02E3             sprintf(buff,"     ");            ShowBigLine(0);
000a21 d372      	RCALL SUBOPT_0x2B
                +
000a22 e5e0     +LDI R30 , LOW ( 2 * _0x0 + ( 702 ) )
000a23 e0f7     +LDI R31 , HIGH ( 2 * _0x0 + ( 702 ) )
                 	__POINTW1FN _0x0,702
000a24 d3c4      	RCALL SUBOPT_0x3A
000a25 d3c5      	RCALL SUBOPT_0x3B
                 ; 0000 02E4             MainInfo();
000a26 dce0      	RCALL _MainInfo
                 ; 0000 02E5 
                 ; 0000 02E6             if(AvtRu==0)//       !!
000a27 d422      	RCALL SUBOPT_0x53
000a28 f521      	BRNE _0xDE
                 ; 0000 02E7             {
                 ; 0000 02E8 //!!!
                 ; 0000 02E9                 if((U1>150)&&(U1<250))
000a29 d3d2      	RCALL SUBOPT_0x40
000a2a 39a7      	CPI  R26,LOW(0x97)
000a2b e0e0      	LDI  R30,HIGH(0x97)
000a2c 07be      	CPC  R27,R30
000a2d f028      	BRLO _0xE0
000a2e d3cd      	RCALL SUBOPT_0x40
000a2f 3faa      	CPI  R26,LOW(0xFA)
000a30 e0e0      	LDI  R30,HIGH(0xFA)
000a31 07be      	CPC  R27,R30
000a32 f008      	BRLO _0xE1
                 _0xE0:
000a33 c018      	RJMP _0xDF
                 _0xE1:
                 ; 0000 02EA                 {   //   '?
                 ; 0000 02EB                     ///////////////////////////////////
                 ; 0000 02EC                     temp=t2;        //      
000a34 91e0 0180 	LDS  R30,_t2_G000
000a36 d3cf      	RCALL SUBOPT_0x42
                 ; 0000 02ED                     while (temp!=0) // ,    ?
                 _0xE2:
000a37 d3d0      	RCALL SUBOPT_0x43
000a38 f041      	BREQ _0xE4
                 ; 0000 02EE                     {
                 ; 0000 02EF                         sprintf(buff,"   "); ShowBigLine(3);
000a39 d35a      	RCALL SUBOPT_0x2B
                +
000a3a e5ec     +LDI R30 , LOW ( 2 * _0x0 + ( 714 ) )
000a3b e0f7     +LDI R31 , HIGH ( 2 * _0x0 + ( 714 ) )
                 	__POINTW1FN _0x0,714
000a3c d3ac      	RCALL SUBOPT_0x3A
000a3d d3cd      	RCALL SUBOPT_0x44
                 ; 0000 02F0                         sprintf(buff,"    %3.uc   ",temp);ShowBigLine(5);
000a3e d3cf      	RCALL SUBOPT_0x45
                 ; 0000 02F1                         delay_ms(ONE_SECOND);
                 ; 0000 02F2                         temp--;
000a3f d364      	RCALL SUBOPT_0x2D
                 ; 0000 02F3                     }
000a40 cff6      	RJMP _0xE2
                 _0xE4:
                 ; 0000 02F4 //!!!
                 ; 0000 02F5 /*2.2*/             if ((U1>140)&&(U1<255)){PositionPointer=33;enter=2;goto begin;}  //   ?, .
000a41 d3ba      	RCALL SUBOPT_0x40
000a42 38ad      	CPI  R26,LOW(0x8D)
000a43 e0e0      	LDI  R30,HIGH(0x8D)
000a44 07be      	CPC  R27,R30
000a45 f010      	BRLO _0xE6
000a46 d407      	RCALL SUBOPT_0x54
000a47 f008      	BRLO _0xE7
                 _0xE6:
000a48 c003      	RJMP _0xE5
                 _0xE7:
000a49 e2e1      	LDI  R30,LOW(33)
000a4a d2ee      	RCALL SUBOPT_0x13
000a4b c0a6      	RJMP _0x80
                 ; 0000 02F6                 }
                 _0xE5:
                 ; 0000 02F7             }
                 _0xDF:
                 ; 0000 02F8             else //  -   !
000a4c c005      	RJMP _0xE8
                 _0xDE:
                 ; 0000 02F9             {
                 ; 0000 02FA                 if(enter>GO_TO_OPTIONS){PositionPointer=33;enter=2;};
000a4d d2fa      	RCALL SUBOPT_0x17
000a4e 31a5      	CPI  R26,LOW(0x15)
000a4f f010      	BRLO _0xE9
000a50 e2e1      	LDI  R30,LOW(33)
000a51 d2e7      	RCALL SUBOPT_0x13
                 _0xE9:
                 ; 0000 02FB             }
                 _0xE8:
                 ; 0000 02FC 
                 ; 0000 02FD             if(GEN_OUT_PIN==1){ //    ?  ( : 0 -  )
000a52 9b80      	SBIS 0x10,0
000a53 c003      	RJMP _0xEA
                 ; 0000 02FE                     PerehodNaMereju();
000a54 dc9a      	RCALL _PerehodNaMereju
                 ; 0000 02FF                     ON_REL=0;              // 
000a55 d3f0      	RCALL SUBOPT_0x52
                 ; 0000 0300                     PositionPointer=41;     //   "   "
                 ; 0000 0301                     Klapan_off();
                 ; 0000 0302                     enter=2;
000a56 d306      	RCALL SUBOPT_0x1E
                 ; 0000 0303                     LCD_Clear();
                 ; 0000 0304             };
                 _0xEA:
                 ; 0000 0305         break;
000a57 c09a      	RJMP _0x71
                 ; 0000 0306     ///////////////////////////////////////////////////////////////////////////////
                 ; 0000 0307         case 33:  //   
                 _0xDD:
000a58 32e1      	CPI  R30,LOW(0x21)
000a59 e0a0      	LDI  R26,HIGH(0x21)
000a5a 07fa      	CPC  R31,R26
000a5b f581      	BRNE _0xED
                 ; 0000 0308             sprintf(buff,"    ");            ShowBigLine(0);
000a5c d337      	RCALL SUBOPT_0x2B
                +
000a5d e6e9     +LDI R30 , LOW ( 2 * _0x0 + ( 727 ) )
000a5e e0f7     +LDI R31 , HIGH ( 2 * _0x0 + ( 727 ) )
                 	__POINTW1FN _0x0,727
000a5f d389      	RCALL SUBOPT_0x3A
000a60 d38a      	RCALL SUBOPT_0x3B
                 ; 0000 0309             PerehodNaMereju();
000a61 dc8d      	RCALL _PerehodNaMereju
                 ; 0000 030A             delay_ms(ONE_SECOND);
000a62 d3d5      	RCALL SUBOPT_0x4E
                 ; 0000 030B             ///////////////////////////////////
                 ; 0000 030C             temp=t5;    //  
000a63 d2f0      	RCALL SUBOPT_0x1B
000a64 d3a1      	RCALL SUBOPT_0x42
                 ; 0000 030D             while (temp!=0) // ,    ?
                 _0xEE:
000a65 d3a2      	RCALL SUBOPT_0x43
000a66 f0d9      	BREQ _0xF0
                 ; 0000 030E             {
                 ; 0000 030F                 sprintf(buff,"  "); ShowBigLine(3);
000a67 d32c      	RCALL SUBOPT_0x2B
                +
000a68 e7e5     +LDI R30 , LOW ( 2 * _0x0 + ( 739 ) )
000a69 e0f7     +LDI R31 , HIGH ( 2 * _0x0 + ( 739 ) )
                 	__POINTW1FN _0x0,739
000a6a d37e      	RCALL SUBOPT_0x3A
000a6b d39f      	RCALL SUBOPT_0x44
                 ; 0000 0310                 sprintf(buff,"    %3.uc   ",temp);ShowBigLine(5);
000a6c d3a1      	RCALL SUBOPT_0x45
                 ; 0000 0311                 delay_ms(ONE_SECOND);
                 ; 0000 0312                 temp--;
000a6d d336      	RCALL SUBOPT_0x2D
                 ; 0000 0313                 if(AvtRu==0)
000a6e d3db      	RCALL SUBOPT_0x53
000a6f f489      	BRNE _0xF1
                 ; 0000 0314                 { //       !!
                 ; 0000 0315                     if ((U1<140)||(U1>265))
000a70 d38b      	RCALL SUBOPT_0x40
000a71 38ac      	CPI  R26,LOW(0x8C)
000a72 e0e0      	LDI  R30,HIGH(0x8C)
000a73 07be      	CPC  R27,R30
000a74 f010      	BRLO _0xF3
000a75 d38b      	RCALL SUBOPT_0x41
000a76 f050      	BRLO _0xF2
                 _0xF3:
                 ; 0000 0316                     {  //    
                 ; 0000 0317                         sprintf(buff,"  HET CET! "); ShowBigLine(3);
000a77 d31c      	RCALL SUBOPT_0x2B
                +
000a78 e6e7     +LDI R30 , LOW ( 2 * _0x0 + ( 213 ) )
000a79 e0f5     +LDI R31 , HIGH ( 2 * _0x0 + ( 213 ) )
                 	__POINTW1FN _0x0,213
000a7a d36e      	RCALL SUBOPT_0x3A
000a7b d38f      	RCALL SUBOPT_0x44
                 ; 0000 0318                         sprintf(buff,"    %3.uc   ",temp);ShowBigLine(5);
000a7c d391      	RCALL SUBOPT_0x45
                 ; 0000 0319                         delay_ms(ONE_SECOND);
                 ; 0000 031A                         PerehodNaGenerator();  //   
000a7d dc6d      	RCALL _PerehodNaGenerator
                 ; 0000 031B                         PositionPointer=32; //   " "
000a7e e2e0      	LDI  R30,LOW(32)
000a7f d2b9      	RCALL SUBOPT_0x13
                 ; 0000 031C                         enter=2; goto begin;
000a80 c071      	RJMP _0x80
                 ; 0000 031D                     }
                 ; 0000 031E                 }
                 _0xF2:
                 ; 0000 031F             }
                 _0xF1:
000a81 cfe3      	RJMP _0xEE
                 _0xF0:
                 ; 0000 0320            //////////////////////////////////
                 ; 0000 0321             Klapan_off();
000a82 dc70      	RCALL _Klapan_off
                 ; 0000 0322             //////////////////////////////////
                 ; 0000 0323             if(AvtRu==0) //   -        
000a83 d3c6      	RCALL SUBOPT_0x53
000a84 f411      	BRNE _0xF5
                 ; 0000 0324             {
                 ; 0000 0325                 PositionPointer=1;
000a85 e0e1      	LDI  R30,LOW(1)
000a86 c001      	RJMP _0x119
                 ; 0000 0326             }
                 ; 0000 0327             else
                 _0xF5:
                 ; 0000 0328             {
                 ; 0000 0329                 PositionPointer=3;
000a87 e0e3      	LDI  R30,LOW(3)
                 _0x119:
000a88 93e0 018b 	STS  _PositionPointer_G000,R30
                 ; 0000 032A             }
                 ; 0000 032B             ON_REL=0;// 
000a8a 9894      	CBI  0x12,4
                 ; 0000 032C             goto begin;
000a8b c066      	RJMP _0x80
                 ; 0000 032D         break;
                 ; 0000 032E     ///////////////////////////////////////////////////////////////////////////////
                 ; 0000 032F 
                 ; 0000 0330         case 40: //    
                 _0xED:
000a8c 32e8      	CPI  R30,LOW(0x28)
000a8d e0a0      	LDI  R26,HIGH(0x28)
000a8e 07fa      	CPC  R31,R26
000a8f f4b1      	BRNE _0xF9
                 ; 0000 0331             sprintf(buff,"(!)  ");            ShowBigLine(0);
000a90 d303      	RCALL SUBOPT_0x2B
                +
000a91 e8e2     +LDI R30 , LOW ( 2 * _0x0 + ( 752 ) )
000a92 e0f7     +LDI R31 , HIGH ( 2 * _0x0 + ( 752 ) )
                 	__POINTW1FN _0x0,752
000a93 d355      	RCALL SUBOPT_0x3A
000a94 d356      	RCALL SUBOPT_0x3B
                 ; 0000 0332             sprintf(buff,"   ");            ShowBigLine(3);
000a95 d2fe      	RCALL SUBOPT_0x2B
                +
000a96 e8ee     +LDI R30 , LOW ( 2 * _0x0 + ( 764 ) )
000a97 e0f7     +LDI R31 , HIGH ( 2 * _0x0 + ( 764 ) )
                 	__POINTW1FN _0x0,764
000a98 d350      	RCALL SUBOPT_0x3A
000a99 d371      	RCALL SUBOPT_0x44
                 ; 0000 0333 //            sprintf(buff,"             "); ShowLine(INFOLINE1);
                 ; 0000 0334 //            sprintf(buff,"     ''  "); ShowLine(INFOLINE2);
                 ; 0000 0335             sprintf(buff,"    >''  "); ShowLine(INFOLINE1);
                +
000a9a e9ea     +LDI R30 , LOW ( 2 * _0x0 + ( 776 ) )
000a9b e0f7     +LDI R31 , HIGH ( 2 * _0x0 + ( 776 ) )
                 	__POINTW1FN _0x0,776
000a9c d34c      	RCALL SUBOPT_0x3A
000a9d d340      	RCALL SUBOPT_0x36
                 ; 0000 0336             delay_ms(ONE_SECOND);
000a9e d399      	RCALL SUBOPT_0x4E
                 ; 0000 0337             LCD_Blinc(QUARTER_SECOND,3);
000a9f d34d      	RCALL SUBOPT_0x3C
                 ; 0000 0338             if(enter>GO_TO_OPTIONS){PositionPointer=LAST_MODE_MENU;enter=2;LCD_Clear();}
000aa0 d2a7      	RCALL SUBOPT_0x17
000aa1 31a5      	CPI  R26,LOW(0x15)
000aa2 f010      	BRLO _0xFA
000aa3 d285      	RCALL SUBOPT_0xF
000aa4 d2b8      	RCALL SUBOPT_0x1E
                 ; 0000 0339         break;
                 _0xFA:
000aa5 c04c      	RJMP _0x71
                 ; 0000 033A     ///////////////////////////////////////////////////////////////////////////////
                 ; 0000 033B         case 41: //     
                 _0xF9:
000aa6 32e9      	CPI  R30,LOW(0x29)
000aa7 e0a0      	LDI  R26,HIGH(0x29)
000aa8 07fa      	CPC  R31,R26
000aa9 f4b1      	BRNE _0xFB
                 ; 0000 033C             sprintf(buff,"(!)  ");            ShowBigLine(0);
000aaa d2e9      	RCALL SUBOPT_0x2B
                +
000aab e8e2     +LDI R30 , LOW ( 2 * _0x0 + ( 752 ) )
000aac e0f7     +LDI R31 , HIGH ( 2 * _0x0 + ( 752 ) )
                 	__POINTW1FN _0x0,752
000aad d33b      	RCALL SUBOPT_0x3A
000aae d33c      	RCALL SUBOPT_0x3B
                 ; 0000 033D             sprintf(buff,"    ");            ShowBigLine(3);
000aaf d2e4      	RCALL SUBOPT_0x2B
                +
000ab0 ebe1     +LDI R30 , LOW ( 2 * _0x0 + ( 799 ) )
000ab1 e0f7     +LDI R31 , HIGH ( 2 * _0x0 + ( 799 ) )
                 	__POINTW1FN _0x0,799
000ab2 d336      	RCALL SUBOPT_0x3A
000ab3 d357      	RCALL SUBOPT_0x44
                 ; 0000 033E             sprintf(buff,"    >''  "); ShowLine(INFOLINE1);
                +
000ab4 e9ea     +LDI R30 , LOW ( 2 * _0x0 + ( 776 ) )
000ab5 e0f7     +LDI R31 , HIGH ( 2 * _0x0 + ( 776 ) )
                 	__POINTW1FN _0x0,776
000ab6 d332      	RCALL SUBOPT_0x3A
000ab7 d326      	RCALL SUBOPT_0x36
                 ; 0000 033F             delay_ms(ONE_SECOND);
000ab8 d37f      	RCALL SUBOPT_0x4E
                 ; 0000 0340             LCD_Blinc(QUARTER_SECOND,3);
000ab9 d333      	RCALL SUBOPT_0x3C
                 ; 0000 0341             if(enter>GO_TO_OPTIONS){PositionPointer=LAST_MODE_MENU;enter=2;LCD_Clear();}
000aba d28d      	RCALL SUBOPT_0x17
000abb 31a5      	CPI  R26,LOW(0x15)
000abc f010      	BRLO _0xFC
000abd d26b      	RCALL SUBOPT_0xF
000abe d29e      	RCALL SUBOPT_0x1E
                 ; 0000 0342         break;
                 _0xFC:
000abf c032      	RJMP _0x71
                 ; 0000 0343     ///////////////////////////////////////////////////////////////////////////////
                 ; 0000 0344         case 42: //     
                 _0xFB:
000ac0 32ea      	CPI  R30,LOW(0x2A)
000ac1 e0a0      	LDI  R26,HIGH(0x2A)
000ac2 07fa      	CPC  R31,R26
000ac3 f571      	BRNE _0x71
                 ; 0000 0345             LINE_REL=1;  //       !!!
000ac4 9a93      	SBI  0x12,3
                 ; 0000 0346             GEN_REL=0;  //  
000ac5 9892      	CBI  0x12,2
                 ; 0000 0347             ON_REL =0;  //:  OUT7
000ac6 9894      	CBI  0x12,4
                 ; 0000 0348             VALVE_U_REL=0;  // OUT5 (Port4)
000ac7 9896      	CBI  0x12,6
                 ; 0000 0349             VALVE_D_REL=0;
000ac8 9897      	CBI  0x12,7
                 ; 0000 034A             STARTER_REL=0;  //  OUT6
000ac9 98c0      	CBI  0x18,0
                 ; 0000 034B 
                 ; 0000 034C 
                 ; 0000 034D 
                 ; 0000 034E             sprintf(buff,"(!)  ");        ShowBigLine(0);
000aca d2c9      	RCALL SUBOPT_0x2B
                +
000acb ebed     +LDI R30 , LOW ( 2 * _0x0 + ( 811 ) )
000acc e0f7     +LDI R31 , HIGH ( 2 * _0x0 + ( 811 ) )
                 	__POINTW1FN _0x0,811
000acd d31b      	RCALL SUBOPT_0x3A
000ace d31c      	RCALL SUBOPT_0x3B
                 ; 0000 034F             if(U1<255){
000acf d37e      	RCALL SUBOPT_0x54
000ad0 f438      	BRSH _0x10A
                 ; 0000 0350             sprintf(buff," Uin =%4.uB",U1);     ShowBigLine(3);
000ad1 d2c2      	RCALL SUBOPT_0x2B
                +
000ad2 ece9     +LDI R30 , LOW ( 2 * _0x0 + ( 823 ) )
000ad3 e0f7     +LDI R31 , HIGH ( 2 * _0x0 + ( 823 ) )
                 	__POINTW1FN _0x0,823
000ad4 d2d7      	RCALL SUBOPT_0x2E
                 ; 0000 0351             sprintf(buff,"    >''  "); ShowLine(INFOLINE1);
                +
000ad5 e9ea     +LDI R30 , LOW ( 2 * _0x0 + ( 776 ) )
000ad6 e0f7     +LDI R31 , HIGH ( 2 * _0x0 + ( 776 ) )
                 	__POINTW1FN _0x0,776
000ad7 c007      	RJMP _0x11A
                 ; 0000 0352             }
                 ; 0000 0353             else
                 _0x10A:
                 ; 0000 0354             {
                 ; 0000 0355             sprintf(buff,"!Uin > 260!");       ShowBigLine(3);
000ad8 d2bb      	RCALL SUBOPT_0x2B
                +
000ad9 ede5     +LDI R30 , LOW ( 2 * _0x0 + ( 835 ) )
000ada e0f7     +LDI R31 , HIGH ( 2 * _0x0 + ( 835 ) )
                 	__POINTW1FN _0x0,835
000adb d30d      	RCALL SUBOPT_0x3A
000adc d32e      	RCALL SUBOPT_0x44
                 ; 0000 0356             sprintf(buff,"    !"); ShowLine(INFOLINE1);
                +
000add eee2     +LDI R30 , LOW ( 2 * _0x0 + ( 848 ) )
000ade e0f7     +LDI R31 , HIGH ( 2 * _0x0 + ( 848 ) )
                 	__POINTW1FN _0x0,848
                 _0x11A:
000adf 93fa      	ST   -Y,R31
000ae0 93ea      	ST   -Y,R30
000ae1 d2e8      	RCALL SUBOPT_0x32
000ae2 d2fb      	RCALL SUBOPT_0x36
                 ; 0000 0357 //            sprintf(buff,"        !         "); ShowLine(INFOLINE2);
                 ; 0000 0358             }
                 ; 0000 0359             delay_ms(ONE_SECOND);
000ae3 d354      	RCALL SUBOPT_0x4E
                 ; 0000 035A             LCD_Blinc(QUARTER_SECOND,3);
000ae4 d308      	RCALL SUBOPT_0x3C
                 ; 0000 035B             if((U1<255)&(enter>GO_TO_OPTIONS)){PositionPointer=LAST_MODE_MENU;PORTD.0=0;enter=2;LCD_Clear();} // PORTD.0 ...
000ae5 d316      	RCALL SUBOPT_0x40
000ae6 efef      	LDI  R30,LOW(255)
000ae7 e0f0      	LDI  R31,HIGH(255)
000ae8 d446      	RCALL __LTW12U
000ae9 2e0e      	MOV  R0,R30
000aea d25d      	RCALL SUBOPT_0x17
000aeb e1e4      	LDI  R30,LOW(20)
000aec d437      	RCALL __GTB12U
000aed 21e0      	AND  R30,R0
000aee f019      	BREQ _0x10C
000aef d239      	RCALL SUBOPT_0xF
000af0 9890      	CBI  0x12,0
000af1 d26b      	RCALL SUBOPT_0x1E
                 ; 0000 035C         break;
                 _0x10C:
                 ; 0000 035D     ///////////////////////////////////////////////////////////////////////////////
                 ; 0000 035E     };// switch (PositionPointer)
                 _0x71:
                 ; 0000 035F     begin:
                 _0x80:
                 ; 0000 0360     } //while
000af2 ccc4      	RJMP _0x68
                 ; 0000 0361 
                 ; 0000 0362 } //main
                 _0x10F:
000af3 cfff      	RJMP _0x10F
                 ; .FEND
                 ;
                 ;
                 	#ifndef __SLEEP_DEFINED__
                 	#endif
                 
                 	.CSEG
                 _put_buff_G100:
                 ; .FSTART _put_buff_G100
000af4 d35e      	RCALL SUBOPT_0x55
000af5 d4df      	RCALL __SAVELOCR2
000af6 d35f      	RCALL SUBOPT_0x56
000af7 9612      	ADIW R26,2
000af8 d497      	RCALL __GETW1P
000af9 9730      	SBIW R30,0
000afa f0f1      	BREQ _0x2000010
000afb d35a      	RCALL SUBOPT_0x56
000afc d35c      	RCALL SUBOPT_0x57
000afd 018f      	MOVW R16,R30
000afe 9730      	SBIW R30,0
000aff f061      	BREQ _0x2000012
                +
000b00 3002     +CPI R16 , LOW ( 2 )
000b01 e0e0     +LDI R30 , HIGH ( 2 )
000b02 071e     +CPC R17 , R30
                 	__CPWRN 16,17,2
000b03 f070      	BRLO _0x2000013
000b04 01f8      	MOVW R30,R16
000b05 9731      	SBIW R30,1
000b06 018f      	MOVW R16,R30
                +
000b07 81aa     +LDD R26 , Y + 2
000b08 81bb     +LDD R27 , Y + 2 + 1
000b09 9614     +ADIW R26 , 4
000b0a 93ed     +ST X + , R30
000b0b 93fc     +ST X , R31
                 	__PUTW1SNS 2,4
                 _0x2000012:
000b0c d349      	RCALL SUBOPT_0x56
000b0d 9612      	ADIW R26,2
000b0e d272      	RCALL SUBOPT_0x27
000b0f 9731      	SBIW R30,1
000b10 81ac      	LDD  R26,Y+4
000b11 83a0      	STD  Z+0,R26
                 _0x2000013:
000b12 d343      	RCALL SUBOPT_0x56
000b13 d47c      	RCALL __GETW1P
000b14 23ff      	TST  R31
000b15 f012      	BRMI _0x2000014
000b16 d33f      	RCALL SUBOPT_0x56
000b17 d269      	RCALL SUBOPT_0x27
                 _0x2000014:
000b18 c005      	RJMP _0x2000015
                 _0x2000010:
000b19 d33c      	RCALL SUBOPT_0x56
000b1a efef      	LDI  R30,LOW(65535)
000b1b efff      	LDI  R31,HIGH(65535)
000b1c 93ed      	ST   X+,R30
000b1d 93fc      	ST   X,R31
                 _0x2000015:
000b1e d4bd      	RCALL __LOADLOCR2
000b1f 9625      	ADIW R28,5
000b20 9508      	RET
                 ; .FEND
                 __print_G100:
                 ; .FSTART __print_G100
000b21 d331      	RCALL SUBOPT_0x55
000b22 972c      	SBIW R28,12
000b23 d4ad      	RCALL __SAVELOCR6
000b24 e010      	LDI  R17,0
000b25 89aa      	LDD  R26,Y+18
000b26 89bb      	LDD  R27,Y+18+1
000b27 e0e0      	LDI  R30,LOW(0)
000b28 e0f0      	LDI  R31,HIGH(0)
000b29 93ed      	ST   X+,R30
000b2a 93fc      	ST   X,R31
                 _0x2000016:
000b2b 8de8      	LDD  R30,Y+24
000b2c 8df9      	LDD  R31,Y+24+1
000b2d 9631      	ADIW R30,1
000b2e 8fe8      	STD  Y+24,R30
000b2f 8ff9      	STD  Y+24+1,R31
000b30 9731      	SBIW R30,1
000b31 91e4      	LPM  R30,Z
000b32 2f2e      	MOV  R18,R30
000b33 30e0      	CPI  R30,0
000b34 f409      	BRNE PC+2
000b35 c16d      	RJMP _0x2000018
000b36 2fe1      	MOV  R30,R17
000b37 30e0      	CPI  R30,0
000b38 f431      	BRNE _0x200001C
000b39 3225      	CPI  R18,37
000b3a f411      	BRNE _0x200001D
000b3b e011      	LDI  R17,LOW(1)
000b3c c001      	RJMP _0x200001E
                 _0x200001D:
000b3d d31e      	RCALL SUBOPT_0x58
                 _0x200001E:
000b3e c163      	RJMP _0x200001B
                 _0x200001C:
000b3f 30e1      	CPI  R30,LOW(0x1)
000b40 f4b9      	BRNE _0x200001F
000b41 3225      	CPI  R18,37
000b42 f411      	BRNE _0x2000020
000b43 d318      	RCALL SUBOPT_0x58
000b44 c15c      	RJMP _0x20000E7
                 _0x2000020:
000b45 e012      	LDI  R17,LOW(2)
000b46 e0e0      	LDI  R30,LOW(0)
000b47 8be9      	STD  Y+17,R30
000b48 e000      	LDI  R16,LOW(0)
000b49 322d      	CPI  R18,45
000b4a f411      	BRNE _0x2000021
000b4b e001      	LDI  R16,LOW(1)
000b4c c155      	RJMP _0x200001B
                 _0x2000021:
000b4d 322b      	CPI  R18,43
000b4e f419      	BRNE _0x2000022
000b4f e2eb      	LDI  R30,LOW(43)
000b50 8be9      	STD  Y+17,R30
000b51 c150      	RJMP _0x200001B
                 _0x2000022:
000b52 3220      	CPI  R18,32
000b53 f419      	BRNE _0x2000023
000b54 e2e0      	LDI  R30,LOW(32)
000b55 8be9      	STD  Y+17,R30
000b56 c14b      	RJMP _0x200001B
                 _0x2000023:
000b57 c002      	RJMP _0x2000024
                 _0x200001F:
000b58 30e2      	CPI  R30,LOW(0x2)
000b59 f439      	BRNE _0x2000025
                 _0x2000024:
000b5a e050      	LDI  R21,LOW(0)
000b5b e013      	LDI  R17,LOW(3)
000b5c 3320      	CPI  R18,48
000b5d f411      	BRNE _0x2000026
000b5e 6800      	ORI  R16,LOW(128)
000b5f c142      	RJMP _0x200001B
                 _0x2000026:
000b60 c002      	RJMP _0x2000027
                 _0x2000025:
000b61 30e3      	CPI  R30,LOW(0x3)
000b62 f491      	BRNE _0x2000028
                 _0x2000027:
000b63 3320      	CPI  R18,48
000b64 f010      	BRLO _0x200002A
000b65 332a      	CPI  R18,58
000b66 f008      	BRLO _0x200002B
                 _0x200002A:
000b67 c007      	RJMP _0x2000029
                 _0x200002B:
000b68 e0aa      	LDI  R26,LOW(10)
000b69 9f5a      	MUL  R21,R26
000b6a 2d50      	MOV  R21,R0
000b6b 2fe2      	MOV  R30,R18
000b6c 53e0      	SUBI R30,LOW(48)
000b6d 0f5e      	ADD  R21,R30
000b6e c133      	RJMP _0x200001B
                 _0x2000029:
000b6f e040      	LDI  R20,LOW(0)
000b70 322e      	CPI  R18,46
000b71 f411      	BRNE _0x200002C
000b72 e014      	LDI  R17,LOW(4)
000b73 c12e      	RJMP _0x200001B
                 _0x200002C:
000b74 c00e      	RJMP _0x200002D
                 _0x2000028:
000b75 30e4      	CPI  R30,LOW(0x4)
000b76 f491      	BRNE _0x200002F
000b77 3320      	CPI  R18,48
000b78 f010      	BRLO _0x2000031
000b79 332a      	CPI  R18,58
000b7a f008      	BRLO _0x2000032
                 _0x2000031:
000b7b c007      	RJMP _0x2000030
                 _0x2000032:
000b7c e0aa      	LDI  R26,LOW(10)
000b7d 9f4a      	MUL  R20,R26
000b7e 2d40      	MOV  R20,R0
000b7f 2fe2      	MOV  R30,R18
000b80 53e0      	SUBI R30,LOW(48)
000b81 0f4e      	ADD  R20,R30
000b82 c11f      	RJMP _0x200001B
                 _0x2000030:
                 _0x200002D:
000b83 362c      	CPI  R18,108
000b84 f419      	BRNE _0x2000033
000b85 6002      	ORI  R16,LOW(2)
000b86 e015      	LDI  R17,LOW(5)
000b87 c11a      	RJMP _0x200001B
                 _0x2000033:
000b88 c003      	RJMP _0x2000034
                 _0x200002F:
000b89 30e5      	CPI  R30,LOW(0x5)
000b8a f009      	BREQ PC+2
000b8b c116      	RJMP _0x200001B
                 _0x2000034:
000b8c 2fe2      	MOV  R30,R18
000b8d 36e3      	CPI  R30,LOW(0x63)
000b8e f439      	BRNE _0x2000039
000b8f d2d3      	RCALL SUBOPT_0x59
000b90 d2d5      	RCALL SUBOPT_0x5A
000b91 d2d1      	RCALL SUBOPT_0x59
000b92 81a4      	LDD  R26,Z+4
000b93 93aa      	ST   -Y,R26
000b94 d2d5      	RCALL SUBOPT_0x5B
000b95 c10b      	RJMP _0x200003A
                 _0x2000039:
000b96 37e3      	CPI  R30,LOW(0x73)
000b97 f431      	BRNE _0x200003C
000b98 d2d7      	RCALL SUBOPT_0x5C
000b99 d2d8      	RCALL SUBOPT_0x5D
000b9a d2da      	RCALL SUBOPT_0x5E
000b9b d138      	RCALL _strlen
000b9c 2f1e      	MOV  R17,R30
000b9d c008      	RJMP _0x200003D
                 _0x200003C:
000b9e 37e0      	CPI  R30,LOW(0x70)
000b9f f491      	BRNE _0x200003F
000ba0 d2cf      	RCALL SUBOPT_0x5C
000ba1 d2d0      	RCALL SUBOPT_0x5D
000ba2 d2d2      	RCALL SUBOPT_0x5E
000ba3 d13b      	RCALL _strlenf
000ba4 2f1e      	MOV  R17,R30
000ba5 6008      	ORI  R16,LOW(8)
                 _0x200003D:
000ba6 770f      	ANDI R16,LOW(127)
000ba7 3040      	CPI  R20,0
000ba8 f011      	BREQ _0x2000041
000ba9 1741      	CP   R20,R17
000baa f008      	BRLO _0x2000042
                 _0x2000041:
000bab c001      	RJMP _0x2000040
                 _0x2000042:
000bac 2f14      	MOV  R17,R20
                 _0x2000040:
000bad e040      	LDI  R20,LOW(0)
000bae e0e0      	LDI  R30,LOW(0)
000baf 8be8      	STD  Y+16,R30
000bb0 e030      	LDI  R19,LOW(0)
000bb1 c062      	RJMP _0x2000043
                 _0x200003F:
000bb2 36e4      	CPI  R30,LOW(0x64)
000bb3 f011      	BREQ _0x2000046
000bb4 36e9      	CPI  R30,LOW(0x69)
000bb5 f411      	BRNE _0x2000047
                 _0x2000046:
000bb6 6004      	ORI  R16,LOW(4)
000bb7 c002      	RJMP _0x2000048
                 _0x2000047:
000bb8 37e5      	CPI  R30,LOW(0x75)
000bb9 f491      	BRNE _0x2000049
                 _0x2000048:
000bba e0ea      	LDI  R30,LOW(10)
000bbb 8be8      	STD  Y+16,R30
000bbc ff01      	SBRS R16,1
000bbd c007      	RJMP _0x200004A
                +
000bbe e0e0     +LDI R30 , LOW ( 0x3B9ACA00 )
000bbf ecfa     +LDI R31 , HIGH ( 0x3B9ACA00 )
000bc0 e96a     +LDI R22 , BYTE3 ( 0x3B9ACA00 )
000bc1 e37b     +LDI R23 , BYTE4 ( 0x3B9ACA00 )
                 	__GETD1N 0x3B9ACA00
000bc2 d2b7      	RCALL SUBOPT_0x5F
000bc3 e01a      	LDI  R17,LOW(10)
000bc4 c01f      	RJMP _0x200004B
                 _0x200004A:
                +
000bc5 e1e0     +LDI R30 , LOW ( 0x2710 )
000bc6 e2f7     +LDI R31 , HIGH ( 0x2710 )
000bc7 e060     +LDI R22 , BYTE3 ( 0x2710 )
000bc8 e070     +LDI R23 , BYTE4 ( 0x2710 )
                 	__GETD1N 0x2710
000bc9 d2b0      	RCALL SUBOPT_0x5F
000bca e015      	LDI  R17,LOW(5)
000bcb c018      	RJMP _0x200004B
                 _0x2000049:
000bcc 35e8      	CPI  R30,LOW(0x58)
000bcd f411      	BRNE _0x200004D
000bce 6008      	ORI  R16,LOW(8)
000bcf c003      	RJMP _0x200004E
                 _0x200004D:
000bd0 37e8      	CPI  R30,LOW(0x78)
000bd1 f009      	BREQ PC+2
000bd2 c0ce      	RJMP _0x200008C
                 _0x200004E:
000bd3 e1e0      	LDI  R30,LOW(16)
000bd4 8be8      	STD  Y+16,R30
000bd5 ff01      	SBRS R16,1
000bd6 c007      	RJMP _0x2000050
                +
000bd7 e0e0     +LDI R30 , LOW ( 0x10000000 )
000bd8 e0f0     +LDI R31 , HIGH ( 0x10000000 )
000bd9 e060     +LDI R22 , BYTE3 ( 0x10000000 )
000bda e170     +LDI R23 , BYTE4 ( 0x10000000 )
                 	__GETD1N 0x10000000
000bdb d29e      	RCALL SUBOPT_0x5F
000bdc e018      	LDI  R17,LOW(8)
000bdd c006      	RJMP _0x200004B
                 _0x2000050:
                +
000bde e0e0     +LDI R30 , LOW ( 0x1000 )
000bdf e1f0     +LDI R31 , HIGH ( 0x1000 )
000be0 e060     +LDI R22 , BYTE3 ( 0x1000 )
000be1 e070     +LDI R23 , BYTE4 ( 0x1000 )
                 	__GETD1N 0x1000
000be2 d297      	RCALL SUBOPT_0x5F
000be3 e014      	LDI  R17,LOW(4)
                 _0x200004B:
000be4 3040      	CPI  R20,0
000be5 f011      	BREQ _0x2000051
000be6 770f      	ANDI R16,LOW(127)
000be7 c001      	RJMP _0x2000052
                 _0x2000051:
000be8 e041      	LDI  R20,LOW(1)
                 _0x2000052:
000be9 ff01      	SBRS R16,1
000bea c006      	RJMP _0x2000053
000beb d284      	RCALL SUBOPT_0x5C
000bec 89ae      	LDD  R26,Y+22
000bed 89bf      	LDD  R27,Y+22+1
000bee 9614      	ADIW R26,4
000bef d3a4      	RCALL __GETD1P
000bf0 c00a      	RJMP _0x20000E8
                 _0x2000053:
000bf1 ff02      	SBRS R16,2
000bf2 c004      	RJMP _0x2000055
000bf3 d27c      	RCALL SUBOPT_0x5C
000bf4 d27d      	RCALL SUBOPT_0x5D
000bf5 d315      	RCALL __CWD1
000bf6 c004      	RJMP _0x20000E8
                 _0x2000055:
000bf7 d278      	RCALL SUBOPT_0x5C
000bf8 d279      	RCALL SUBOPT_0x5D
000bf9 2766      	CLR  R22
000bfa 2777      	CLR  R23
                 _0x20000E8:
                +
000bfb 87ec     +STD Y + 12 , R30
000bfc 87fd     +STD Y + 12 + 1 , R31
000bfd 876e     +STD Y + 12 + 2 , R22
000bfe 877f     +STD Y + 12 + 3 , R23
                 	__PUTD1S 12
000bff ff02      	SBRS R16,2
000c00 c012      	RJMP _0x2000057
000c01 85af      	LDD  R26,Y+15
000c02 23aa      	TST  R26
000c03 f442      	BRPL _0x2000058
                +
000c04 85ec     +LDD R30 , Y + 12
000c05 85fd     +LDD R31 , Y + 12 + 1
000c06 856e     +LDD R22 , Y + 12 + 2
000c07 857f     +LDD R23 , Y + 12 + 3
                 	__GETD1S 12
000c08 d2f5      	RCALL __ANEGD1
000c09 d275      	RCALL SUBOPT_0x60
000c0a e2ed      	LDI  R30,LOW(45)
000c0b 8be9      	STD  Y+17,R30
                 _0x2000058:
000c0c 89e9      	LDD  R30,Y+17
000c0d 30e0      	CPI  R30,0
000c0e f019      	BREQ _0x2000059
000c0f 5f1f      	SUBI R17,-LOW(1)
000c10 5f4f      	SUBI R20,-LOW(1)
000c11 c001      	RJMP _0x200005A
                 _0x2000059:
000c12 7f0b      	ANDI R16,LOW(251)
                 _0x200005A:
                 _0x2000057:
000c13 2f34      	MOV  R19,R20
                 _0x2000043:
000c14 fd00      	SBRC R16,0
000c15 c013      	RJMP _0x200005B
                 _0x200005C:
000c16 1715      	CP   R17,R21
000c17 f410      	BRSH _0x200005F
000c18 1735      	CP   R19,R21
000c19 f008      	BRLO _0x2000060
                 _0x200005F:
000c1a c00e      	RJMP _0x200005E
                 _0x2000060:
000c1b ff07      	SBRS R16,7
000c1c c008      	RJMP _0x2000061
000c1d ff02      	SBRS R16,2
000c1e c004      	RJMP _0x2000062
000c1f 7f0b      	ANDI R16,LOW(251)
000c20 8929      	LDD  R18,Y+17
000c21 5011      	SUBI R17,LOW(1)
000c22 c001      	RJMP _0x2000063
                 _0x2000062:
000c23 e320      	LDI  R18,LOW(48)
                 _0x2000063:
000c24 c001      	RJMP _0x2000064
                 _0x2000061:
000c25 e220      	LDI  R18,LOW(32)
                 _0x2000064:
000c26 d235      	RCALL SUBOPT_0x58
000c27 5051      	SUBI R21,LOW(1)
000c28 cfed      	RJMP _0x200005C
                 _0x200005E:
                 _0x200005B:
                 _0x2000065:
000c29 1714      	CP   R17,R20
000c2a f488      	BRSH _0x2000067
000c2b 6100      	ORI  R16,LOW(16)
000c2c ff02      	SBRS R16,2
000c2d c006      	RJMP _0x2000068
000c2e d255      	RCALL SUBOPT_0x61
000c2f 3050      	CPI  R21,0
000c30 f009      	BREQ _0x2000069
000c31 5051      	SUBI R21,LOW(1)
                 _0x2000069:
000c32 5011      	SUBI R17,LOW(1)
000c33 5041      	SUBI R20,LOW(1)
                 _0x2000068:
000c34 e3e0      	LDI  R30,LOW(48)
000c35 93ea      	ST   -Y,R30
000c36 d233      	RCALL SUBOPT_0x5B
000c37 3050      	CPI  R21,0
000c38 f009      	BREQ _0x200006A
000c39 5051      	SUBI R21,LOW(1)
                 _0x200006A:
000c3a 5041      	SUBI R20,LOW(1)
000c3b cfed      	RJMP _0x2000065
                 _0x2000067:
000c3c 2f31      	MOV  R19,R17
000c3d 89e8      	LDD  R30,Y+16
000c3e 30e0      	CPI  R30,0
000c3f f4b1      	BRNE _0x200006B
                 _0x200006C:
000c40 3030      	CPI  R19,0
000c41 f099      	BREQ _0x200006E
000c42 ff03      	SBRS R16,3
000c43 c006      	RJMP _0x200006F
000c44 81ee      	LDD  R30,Y+6
000c45 81ff      	LDD  R31,Y+6+1
000c46 9125      	LPM  R18,Z+
000c47 83ee      	STD  Y+6,R30
000c48 83ff      	STD  Y+6+1,R31
000c49 c005      	RJMP _0x2000070
                 _0x200006F:
000c4a 81ae      	LDD  R26,Y+6
000c4b 81bf      	LDD  R27,Y+6+1
000c4c 912d      	LD   R18,X+
000c4d 83ae      	STD  Y+6,R26
000c4e 83bf      	STD  Y+6+1,R27
                 _0x2000070:
000c4f d20c      	RCALL SUBOPT_0x58
000c50 3050      	CPI  R21,0
000c51 f009      	BREQ _0x2000071
000c52 5051      	SUBI R21,LOW(1)
                 _0x2000071:
000c53 5031      	SUBI R19,LOW(1)
000c54 cfeb      	RJMP _0x200006C
                 _0x200006E:
000c55 c042      	RJMP _0x2000072
                 _0x200006B:
                 _0x2000074:
000c56 d231      	RCALL SUBOPT_0x62
000c57 d2fe      	RCALL __DIVD21U
000c58 2f2e      	MOV  R18,R30
000c59 302a      	CPI  R18,10
000c5a f030      	BRLO _0x2000076
000c5b ff03      	SBRS R16,3
000c5c c002      	RJMP _0x2000077
000c5d 5c29      	SUBI R18,-LOW(55)
000c5e c001      	RJMP _0x2000078
                 _0x2000077:
000c5f 5a29      	SUBI R18,-LOW(87)
                 _0x2000078:
000c60 c001      	RJMP _0x2000079
                 _0x2000076:
000c61 5d20      	SUBI R18,-LOW(48)
                 _0x2000079:
000c62 fd04      	SBRC R16,4
000c63 c01e      	RJMP _0x200007B
000c64 3321      	CPI  R18,49
000c65 f448      	BRSH _0x200007D
000c66 d22a      	RCALL SUBOPT_0x63
                +
000c67 30a1     +CPI R26 , LOW ( 0x1 )
000c68 e0e0     +LDI R30 , HIGH ( 0x1 )
000c69 07be     +CPC R27 , R30
000c6a e0e0     +LDI R30 , BYTE3 ( 0x1 )
000c6b 078e     +CPC R24 , R30
000c6c e0e0     +LDI R30 , BYTE4 ( 0x1 )
000c6d 079e     +CPC R25 , R30
                 	__CPD2N 0x1
000c6e f409      	BRNE _0x200007C
                 _0x200007D:
000c6f c00b      	RJMP _0x200007F
                 _0x200007C:
000c70 1743      	CP   R20,R19
000c71 f440      	BRSH _0x20000E9
000c72 1753      	CP   R21,R19
000c73 f010      	BRLO _0x2000082
000c74 ff00      	SBRS R16,0
000c75 c001      	RJMP _0x2000083
                 _0x2000082:
000c76 c00f      	RJMP _0x2000081
                 _0x2000083:
000c77 e220      	LDI  R18,LOW(32)
000c78 ff07      	SBRS R16,7
000c79 c008      	RJMP _0x2000084
                 _0x20000E9:
000c7a e320      	LDI  R18,LOW(48)
                 _0x200007F:
000c7b 6100      	ORI  R16,LOW(16)
000c7c ff02      	SBRS R16,2
000c7d c004      	RJMP _0x2000085
000c7e d205      	RCALL SUBOPT_0x61
000c7f 3050      	CPI  R21,0
000c80 f009      	BREQ _0x2000086
000c81 5051      	SUBI R21,LOW(1)
                 _0x2000086:
                 _0x2000085:
                 _0x2000084:
                 _0x200007B:
000c82 d1d9      	RCALL SUBOPT_0x58
000c83 3050      	CPI  R21,0
000c84 f009      	BREQ _0x2000087
000c85 5051      	SUBI R21,LOW(1)
                 _0x2000087:
                 _0x2000081:
000c86 5031      	SUBI R19,LOW(1)
000c87 d200      	RCALL SUBOPT_0x62
000c88 d303      	RCALL __MODD21U
000c89 d1f5      	RCALL SUBOPT_0x60
000c8a 89e8      	LDD  R30,Y+16
000c8b d205      	RCALL SUBOPT_0x63
000c8c 27ff      	CLR  R31
000c8d 2766      	CLR  R22
000c8e 2777      	CLR  R23
000c8f d2c6      	RCALL __DIVD21U
000c90 d1e9      	RCALL SUBOPT_0x5F
                +
000c91 85e8     +LDD R30 , Y + 8
000c92 85f9     +LDD R31 , Y + 8 + 1
000c93 856a     +LDD R22 , Y + 8 + 2
000c94 857b     +LDD R23 , Y + 8 + 3
                 	__GETD1S 8
000c95 d332      	RCALL __CPD10
000c96 f009      	BREQ _0x2000075
000c97 cfbe      	RJMP _0x2000074
                 _0x2000075:
                 _0x2000072:
000c98 ff00      	SBRS R16,0
000c99 c007      	RJMP _0x2000088
                 _0x2000089:
000c9a 3050      	CPI  R21,0
000c9b f029      	BREQ _0x200008B
000c9c 5051      	SUBI R21,LOW(1)
000c9d e2e0      	LDI  R30,LOW(32)
000c9e 93ea      	ST   -Y,R30
000c9f d1ca      	RCALL SUBOPT_0x5B
000ca0 cff9      	RJMP _0x2000089
                 _0x200008B:
                 _0x2000088:
                 _0x200008C:
                 _0x200003A:
                 _0x20000E7:
000ca1 e010      	LDI  R17,LOW(0)
                 _0x200001B:
000ca2 ce88      	RJMP _0x2000016
                 _0x2000018:
000ca3 89aa      	LDD  R26,Y+18
000ca4 89bb      	LDD  R27,Y+18+1
000ca5 d2ea      	RCALL __GETW1P
000ca6 d331      	RCALL __LOADLOCR6
000ca7 966a      	ADIW R28,26
000ca8 9508      	RET
                 ; .FEND
                 _sprintf:
                 ; .FSTART _sprintf
000ca9 92ff      	PUSH R15
000caa 2ef8      	MOV  R15,R24
000cab 9726      	SBIW R28,6
000cac d326      	RCALL __SAVELOCR4
000cad d1e8      	RCALL SUBOPT_0x64
000cae 9730      	SBIW R30,0
000caf f419      	BRNE _0x200008D
000cb0 efef      	LDI  R30,LOW(65535)
000cb1 efff      	LDI  R31,HIGH(65535)
000cb2 c01d      	RJMP _0x2060001
                 _0x200008D:
000cb3 01de      	MOVW R26,R28
000cb4 9616      	ADIW R26,6
000cb5 d240      	RCALL __ADDW2R15
000cb6 018d      	MOVW R16,R26
000cb7 d1de      	RCALL SUBOPT_0x64
000cb8 83ee      	STD  Y+6,R30
000cb9 83ff      	STD  Y+6+1,R31
000cba e0e0      	LDI  R30,LOW(0)
000cbb 87e8      	STD  Y+8,R30
000cbc 87e9      	STD  Y+8+1,R30
000cbd 01de      	MOVW R26,R28
000cbe 961a      	ADIW R26,10
000cbf d236      	RCALL __ADDW2R15
000cc0 d2cf      	RCALL __GETW1P
000cc1 d02e      	RCALL SUBOPT_0x2
000cc2 931a      	ST   -Y,R17
000cc3 930a      	ST   -Y,R16
000cc4 efe4      	LDI  R30,LOW(_put_buff_G100)
000cc5 e0fa      	LDI  R31,HIGH(_put_buff_G100)
000cc6 d029      	RCALL SUBOPT_0x2
000cc7 01de      	MOVW R26,R28
000cc8 961a      	ADIW R26,10
000cc9 de57      	RCALL __print_G100
000cca 019f      	MOVW R18,R30
000ccb 81ae      	LDD  R26,Y+6
000ccc 81bf      	LDD  R27,Y+6+1
000ccd e0e0      	LDI  R30,LOW(0)
000cce 93ec      	ST   X,R30
000ccf 01f9      	MOVW R30,R18
                 _0x2060001:
000cd0 d309      	RCALL __LOADLOCR4
000cd1 962a      	ADIW R28,10
000cd2 90ff      	POP  R15
000cd3 9508      	RET
                 ; .FEND
                 
                 	.CSEG
                 
                 	.CSEG
                 _strlen:
                 ; .FSTART _strlen
000cd4 d17e      	RCALL SUBOPT_0x55
000cd5 91a9          ld   r26,y+
000cd6 91b9          ld   r27,y+
000cd7 27ee          clr  r30
000cd8 27ff          clr  r31
                 strlen0:
000cd9 916d          ld   r22,x+
000cda 2366          tst  r22
000cdb f011          breq strlen1
000cdc 9631          adiw r30,1
000cdd cffb          rjmp strlen0
                 strlen1:
000cde 9508          ret
                 ; .FEND
                 _strlenf:
                 ; .FSTART _strlenf
000cdf d173      	RCALL SUBOPT_0x55
000ce0 27aa          clr  r26
000ce1 27bb          clr  r27
000ce2 91e9          ld   r30,y+
000ce3 91f9          ld   r31,y+
                 strlenf0:
000ce4 9005      	lpm  r0,z+
000ce5 2000          tst  r0
000ce6 f011          breq strlenf1
000ce7 9611          adiw r26,1
000ce8 cffb          rjmp strlenf0
                 strlenf1:
000ce9 01fd          movw r30,r26
000cea 9508          ret
                 ; .FEND
                 
                 	.DSEG
                 _buff_G000:
000160           	.BYTE 0x1E
                 
                 	.ESEG
                 _Termo:
000000 af
000001 aa
000002 9b
000003 91        	.DB  0xAF,0xAA,0x9B,0x91
000004 87
000005 82
000006 7d
000007 78        	.DB  0x87,0x82,0x7D,0x78
000008 75
000009 73
00000a 70
00000b 6e        	.DB  0x75,0x73,0x70,0x6E
00000c 6b
00000d 69
00000e 68
00000f 66        	.DB  0x6B,0x69,0x68,0x66
000010 64
000011 63
000012 62
000013 60        	.DB  0x64,0x63,0x62,0x60
000014 5f
000015 5e
000016 5d
000017 5b        	.DB  0x5F,0x5E,0x5D,0x5B
000018 5a
000019 59
00001a 58
00001b 57        	.DB  0x5A,0x59,0x58,0x57
00001c 56
00001d 55
00001e 54
00001f 54        	.DB  0x56,0x55,0x54,0x54
000020 53
000021 52
000022 52
000023 51        	.DB  0x53,0x52,0x52,0x51
000024 50
000025 50
000026 4f
000027 4e        	.DB  0x50,0x50,0x4F,0x4E
000028 4e
000029 4d
00002a 4d
00002b 4c        	.DB  0x4E,0x4D,0x4D,0x4C
00002c 4c
00002d 4b
00002e 4b
00002f 4a        	.DB  0x4C,0x4B,0x4B,0x4A
000030 4a
000031 49
000032 48
000033 48        	.DB  0x4A,0x49,0x48,0x48
000034 47
000035 47
000036 46
000037 46        	.DB  0x47,0x47,0x46,0x46
000038 45
000039 45
00003a 44
00003b 44        	.DB  0x45,0x45,0x44,0x44
00003c 44
00003d 43
00003e 43
00003f 43        	.DB  0x44,0x43,0x43,0x43
000040 42
000041 42
000042 41
000043 41        	.DB  0x42,0x42,0x41,0x41
000044 41
000045 40
000046 40
000047 40        	.DB  0x41,0x40,0x40,0x40
000048 3f
000049 3f
00004a 3f
00004b 3e        	.DB  0x3F,0x3F,0x3F,0x3E
00004c 3e
00004d 3e
00004e 3d
00004f 3d        	.DB  0x3E,0x3E,0x3D,0x3D
000050 3d
000051 3c
000052 3c
000053 3c        	.DB  0x3D,0x3C,0x3C,0x3C
000054 3c
000055 3b
000056 3b
000057 3b        	.DB  0x3C,0x3B,0x3B,0x3B
000058 3a
000059 3a
00005a 3a
00005b 3a        	.DB  0x3A,0x3A,0x3A,0x3A
00005c 39
00005d 39
00005e 39
00005f 38        	.DB  0x39,0x39,0x39,0x38
000060 38
000061 38
000062 37
000063 37        	.DB  0x38,0x38,0x37,0x37
000064 37
000065 37
000066 37
000067 36        	.DB  0x37,0x37,0x37,0x36
000068 36
000069 36
00006a 36
00006b 35        	.DB  0x36,0x36,0x36,0x35
00006c 35
00006d 35
00006e 35
00006f 35        	.DB  0x35,0x35,0x35,0x35
000070 34
000071 34
000072 34
000073 34        	.DB  0x34,0x34,0x34,0x34
000074 33
000075 33
000076 33
000077 33        	.DB  0x33,0x33,0x33,0x33
000078 32
000079 32
00007a 32
00007b 32        	.DB  0x32,0x32,0x32,0x32
00007c 31
00007d 31
00007e 31
00007f 31        	.DB  0x31,0x31,0x31,0x31
000080 31
000081 31
000082 30
000083 30        	.DB  0x31,0x31,0x30,0x30
000084 30
000085 30
000086 30
000087 2f        	.DB  0x30,0x30,0x30,0x2F
000088 2f
000089 2f
00008a 2f
00008b 2f        	.DB  0x2F,0x2F,0x2F,0x2F
00008c 2f
00008d 2e
00008e 2e
00008f 2e        	.DB  0x2F,0x2E,0x2E,0x2E
000090 2e
000091 2e
000092 2d
000093 2d        	.DB  0x2E,0x2E,0x2D,0x2D
000094 2d
000095 2d
000096 2d
000097 2c        	.DB  0x2D,0x2D,0x2D,0x2C
000098 2c
000099 2c
00009a 2c
00009b 2c        	.DB  0x2C,0x2C,0x2C,0x2C
00009c 2c
00009d 2b
00009e 2b
00009f 2b        	.DB  0x2C,0x2B,0x2B,0x2B
0000a0 2b
0000a1 2b
0000a2 2b
0000a3 2b        	.DB  0x2B,0x2B,0x2B,0x2B
0000a4 2a
0000a5 2a
0000a6 2a
0000a7 2a        	.DB  0x2A,0x2A,0x2A,0x2A
0000a8 2a
0000a9 29
0000aa 29
0000ab 29        	.DB  0x2A,0x29,0x29,0x29
0000ac 29
0000ad 29
0000ae 29
0000af 28        	.DB  0x29,0x29,0x29,0x28
0000b0 28
0000b1 28
0000b2 28
0000b3 28        	.DB  0x28,0x28,0x28,0x28
0000b4 28
0000b5 27
0000b6 27
0000b7 27        	.DB  0x28,0x27,0x27,0x27
0000b8 27
0000b9 27
0000ba 27
0000bb 27        	.DB  0x27,0x27,0x27,0x27
0000bc 26
0000bd 26
0000be 26
0000bf 26        	.DB  0x26,0x26,0x26,0x26
0000c0 26
0000c1 26
0000c2 26
0000c3 25        	.DB  0x26,0x26,0x26,0x25
0000c4 25
0000c5 25
0000c6 25
0000c7 25        	.DB  0x25,0x25,0x25,0x25
0000c8 25
0000c9 25
0000ca 24
0000cb 24        	.DB  0x25,0x25,0x24,0x24
0000cc 24
0000cd 24
0000ce 24
0000cf 23        	.DB  0x24,0x24,0x24,0x23
0000d0 23
0000d1 23
0000d2 23
0000d3 23        	.DB  0x23,0x23,0x23,0x23
0000d4 23
0000d5 23
0000d6 22
0000d7 22        	.DB  0x23,0x23,0x22,0x22
0000d8 22
0000d9 22
0000da 22
0000db 22        	.DB  0x22,0x22,0x22,0x22
0000dc 22
0000dd 21
0000de 21
0000df 21        	.DB  0x22,0x21,0x21,0x21
0000e0 21
0000e1 21
0000e2 21
0000e3 21        	.DB  0x21,0x21,0x21,0x21
0000e4 21
0000e5 20
0000e6 20
0000e7 20        	.DB  0x21,0x20,0x20,0x20
0000e8 20
0000e9 20
0000ea 20
0000eb 20        	.DB  0x20,0x20,0x20,0x20
0000ec 1f
0000ed 1f
0000ee 1f
0000ef 1f        	.DB  0x1F,0x1F,0x1F,0x1F
0000f0 1f
0000f1 1f
0000f2 1f
0000f3 1e        	.DB  0x1F,0x1F,0x1F,0x1E
0000f4 1e
0000f5 1e
0000f6 1e
0000f7 1e        	.DB  0x1E,0x1E,0x1E,0x1E
0000f8 1e
0000f9 1e
0000fa 1e
0000fb 1d        	.DB  0x1E,0x1E,0x1E,0x1D
0000fc 1d
0000fd 1d
0000fe 14
0000ff 14        	.DB  0x1D,0x1D,0x14,0x14
                 _typeEEP:
000100 00        	.DB  0x0
                 _t1EEP:
000101 0a        	.DB  0xA
                 _t2EEP:
000102 0a        	.DB  0xA
                 _t3EEP:
000103 06        	.DB  0x6
                 _t4EEP:
000104 08        	.DB  0x8
                 _t5EEP:
000105 05        	.DB  0x5
                 _TminZEEP:
000106 14        	.DB  0x14
                 _TminNEEP:
000107 32        	.DB  0x32
                 _Z_EEP:
000108 00        	.DB  0x0
                 _R_EEP:
000109 00        	.DB  0x0
                 _KilkistZapuskiv_EEP:
00010a 03        	.DB  0x3
                 _NarabotkaEEP:
00010b 00
00010c 00        	.DB  0x0,0x0
                 _TO_EEP:
00010d 01        	.DB  0x1
                 
                 	.DSEG
                 _type_G000:
00017e           	.BYTE 0x1
                 _t1_G000:
00017f           	.BYTE 0x1
                 _t2_G000:
000180           	.BYTE 0x1
                 _t3_G000:
000181           	.BYTE 0x1
                 _t4_G000:
000182           	.BYTE 0x1
                 _t5_G000:
000183           	.BYTE 0x1
                 _TminZ_G000:
000184           	.BYTE 0x1
                 _TminN_G000:
000185           	.BYTE 0x1
                 _KilkistZapuskiv_G000:
000186           	.BYTE 0x1
                 _AvtRu_G000:
000187           	.BYTE 0x1
                 _up_G000:
000188           	.BYTE 0x1
                 _down_G000:
000189           	.BYTE 0x1
                 _enter_G000:
00018a           	.BYTE 0x1
                 _PositionPointer_G000:
00018b           	.BYTE 0x1
                 _podsvet_G000:
00018c           	.BYTE 0x1
                 _U_Bat_G000:
00018d           	.BYTE 0x2
                 _U1_G000:
00018f           	.BYTE 0x2
                 _T_G000:
000191           	.BYTE 0x2
                 _rotor_G000:
000193           	.BYTE 0x1
                 _interrapt_counter_G000:
000194           	.BYTE 0x2
                 _second_counter_G000:
000196           	.BYTE 0x1
                 _minut_counter_G000:
000197           	.BYTE 0x2
                 _temp_G000:
000199           	.BYTE 0x2
                 
                 	.CSEG
                 ;OPTIMIZER ADDED SUBROUTINE, CALLED 36 TIMES, CODE SIZE REDUCTION:33 WORDS
                 SUBOPT_0x0:
000ceb e0e0      	LDI  R30,LOW(0)
000cec 93ea      	ST   -Y,R30
000ced 9508      	RET
                 
                 ;OPTIMIZER ADDED SUBROUTINE, CALLED 23 TIMES, CODE SIZE REDUCTION:20 WORDS
                 SUBOPT_0x1:
000cee d7a0      	RCALL _LCD_Commmand
000cef cffb      	RJMP SUBOPT_0x0
                 
                 ;OPTIMIZER ADDED SUBROUTINE, CALLED 137 TIMES, CODE SIZE REDUCTION:134 WORDS
                 SUBOPT_0x2:
000cf0 93fa      	ST   -Y,R31
000cf1 93ea      	ST   -Y,R30
000cf2 9508      	RET
                 
                 ;OPTIMIZER ADDED SUBROUTINE, CALLED 2 TIMES, CODE SIZE REDUCTION:1 WORDS
                 SUBOPT_0x3:
000cf3 d77f      	RCALL _LCD_Mode
000cf4 81aa      	LDD  R26,Y+2
000cf5 81bb      	LDD  R27,Y+2+1
000cf6 c1f5      	RJMP _delay_ms
                 
                 ;OPTIMIZER ADDED SUBROUTINE, CALLED 2 TIMES, CODE SIZE REDUCTION:2 WORDS
                 SUBOPT_0x4:
000cf7 81a9      	LDD  R26,Y+1
000cf8 d7a2      	RCALL _LCD_Goto
000cf9 e6e0      	LDI  R30,LOW(_buff_G000)
000cfa e0f1      	LDI  R31,HIGH(_buff_G000)
000cfb cff4      	RJMP SUBOPT_0x2
                 
                 ;OPTIMIZER ADDED SUBROUTINE, CALLED 3 TIMES, CODE SIZE REDUCTION:4 WORDS
                 SUBOPT_0x5:
000cfc d79e      	RCALL _LCD_Goto
000cfd e6e0      	LDI  R30,LOW(_buff_G000)
000cfe e0f1      	LDI  R31,HIGH(_buff_G000)
000cff cff0      	RJMP SUBOPT_0x2
                 
                 ;OPTIMIZER ADDED SUBROUTINE, CALLED 14 TIMES, CODE SIZE REDUCTION:11 WORDS
                 SUBOPT_0x6:
000d00 91a0 018b 	LDS  R26,_PositionPointer_G000
000d02 9508      	RET
                 
                 ;OPTIMIZER ADDED SUBROUTINE, CALLED 17 TIMES, CODE SIZE REDUCTION:14 WORDS
                 SUBOPT_0x7:
000d03 91a0 0188 	LDS  R26,_up_G000
000d05 9508      	RET
                 
                 ;OPTIMIZER ADDED SUBROUTINE, CALLED 17 TIMES, CODE SIZE REDUCTION:30 WORDS
                 SUBOPT_0x8:
000d06 e0e1      	LDI  R30,LOW(1)
000d07 d208      	RCALL __EQB12
000d08 2e0e      	MOV  R0,R30
000d09 9508      	RET
                 
                 ;OPTIMIZER ADDED SUBROUTINE, CALLED 2 TIMES, CODE SIZE REDUCTION:1 WORDS
                 SUBOPT_0x9:
000d0a dff8      	RCALL SUBOPT_0x7
000d0b e0ea      	LDI  R30,LOW(10)
000d0c d217      	RCALL __GTB12U
000d0d 29e0      	OR   R30,R0
000d0e 9508      	RET
                 
                 ;OPTIMIZER ADDED SUBROUTINE, CALLED 5 TIMES, CODE SIZE REDUCTION:2 WORDS
                 SUBOPT_0xA:
000d0f 91e0 018b 	LDS  R30,_PositionPointer_G000
000d11 9508      	RET
                 
                 ;OPTIMIZER ADDED SUBROUTINE, CALLED 2 TIMES, CODE SIZE REDUCTION:3 WORDS
                 SUBOPT_0xB:
000d12 5fef      	SUBI R30,-LOW(1)
000d13 93e0 018b 	STS  _PositionPointer_G000,R30
000d15 e0e2      	LDI  R30,LOW(2)
000d16 93e0 0188 	STS  _up_G000,R30
000d18 9508      	RET
                 
                 ;OPTIMIZER ADDED SUBROUTINE, CALLED 17 TIMES, CODE SIZE REDUCTION:14 WORDS
                 SUBOPT_0xC:
000d19 91a0 0189 	LDS  R26,_down_G000
000d1b 9508      	RET
                 
                 ;OPTIMIZER ADDED SUBROUTINE, CALLED 2 TIMES, CODE SIZE REDUCTION:1 WORDS
                 SUBOPT_0xD:
000d1c dffc      	RCALL SUBOPT_0xC
000d1d e0ea      	LDI  R30,LOW(10)
000d1e d205      	RCALL __GTB12U
000d1f 29e0      	OR   R30,R0
000d20 9508      	RET
                 
                 ;OPTIMIZER ADDED SUBROUTINE, CALLED 2 TIMES, CODE SIZE REDUCTION:4 WORDS
                 SUBOPT_0xE:
000d21 dfed      	RCALL SUBOPT_0xA
000d22 50e1      	SUBI R30,LOW(1)
000d23 93e0 018b 	STS  _PositionPointer_G000,R30
000d25 e0e2      	LDI  R30,LOW(2)
000d26 93e0 0189 	STS  _down_G000,R30
000d28 9508      	RET
                 
                 ;OPTIMIZER ADDED SUBROUTINE, CALLED 5 TIMES, CODE SIZE REDUCTION:6 WORDS
                 SUBOPT_0xF:
000d29 e0e3      	LDI  R30,LOW(3)
000d2a 93e0 018b 	STS  _PositionPointer_G000,R30
000d2c 9508      	RET
                 
                 ;OPTIMIZER ADDED SUBROUTINE, CALLED 18 TIMES, CODE SIZE REDUCTION:15 WORDS
                 SUBOPT_0x10:
000d2d 93e0 018b 	STS  _PositionPointer_G000,R30
000d2f 9508      	RET
                 
                 ;OPTIMIZER ADDED SUBROUTINE, CALLED 3 TIMES, CODE SIZE REDUCTION:8 WORDS
                 SUBOPT_0x11:
000d30 91a0 018a 	LDS  R26,_enter_G000
000d32 e1e4      	LDI  R30,LOW(20)
000d33 d1f0      	RCALL __GTB12U
000d34 2e0e      	MOV  R0,R30
000d35 cfca      	RJMP SUBOPT_0x6
                 
                 ;OPTIMIZER ADDED SUBROUTINE, CALLED 15 TIMES, CODE SIZE REDUCTION:12 WORDS
                 SUBOPT_0x12:
000d36 d1d9      	RCALL __EQB12
000d37 21e0      	AND  R30,R0
000d38 9508      	RET
                 
                 ;OPTIMIZER ADDED SUBROUTINE, CALLED 5 TIMES, CODE SIZE REDUCTION:10 WORDS
                 SUBOPT_0x13:
000d39 dff3      	RCALL SUBOPT_0x10
000d3a e0e2      	LDI  R30,LOW(2)
000d3b 93e0 018a 	STS  _enter_G000,R30
000d3d 9508      	RET
                 
                 ;OPTIMIZER ADDED SUBROUTINE, CALLED 4 TIMES, CODE SIZE REDUCTION:10 WORDS
                 SUBOPT_0x14:
000d3e e0aa      	LDI  R26,LOW(_KilkistZapuskiv_EEP)
000d3f e0b1      	LDI  R27,HIGH(_KilkistZapuskiv_EEP)
000d40 d262      	RCALL __EEPROMRDB
000d41 93e0 0186 	STS  _KilkistZapuskiv_G000,R30
000d43 9508      	RET
                 
                 ;OPTIMIZER ADDED SUBROUTINE, CALLED 7 TIMES, CODE SIZE REDUCTION:4 WORDS
                 SUBOPT_0x15:
000d44 dfbe      	RCALL SUBOPT_0x7
000d45 cfc0      	RJMP SUBOPT_0x8
                 
                 ;OPTIMIZER ADDED SUBROUTINE, CALLED 7 TIMES, CODE SIZE REDUCTION:4 WORDS
                 SUBOPT_0x16:
000d46 dfd2      	RCALL SUBOPT_0xC
000d47 cfbe      	RJMP SUBOPT_0x8
                 
                 ;OPTIMIZER ADDED SUBROUTINE, CALLED 7 TIMES, CODE SIZE REDUCTION:4 WORDS
                 SUBOPT_0x17:
000d48 91a0 018a 	LDS  R26,_enter_G000
000d4a 9508      	RET
                 
                 ;OPTIMIZER ADDED SUBROUTINE, CALLED 5 TIMES, CODE SIZE REDUCTION:2 WORDS
                 SUBOPT_0x18:
000d4b 262e      	EOR  R2,R30
000d4c e0e2      	LDI  R30,LOW(2)
000d4d 9508      	RET
                 
                 ;OPTIMIZER ADDED SUBROUTINE, CALLED 11 TIMES, CODE SIZE REDUCTION:8 WORDS
                 SUBOPT_0x19:
000d4e 93e0 018a 	STS  _enter_G000,R30
000d50 9508      	RET
                 
                 ;OPTIMIZER ADDED SUBROUTINE, CALLED 5 TIMES, CODE SIZE REDUCTION:2 WORDS
                 SUBOPT_0x1A:
000d51 91e0 0182 	LDS  R30,_t4_G000
000d53 9508      	RET
                 
                 ;OPTIMIZER ADDED SUBROUTINE, CALLED 6 TIMES, CODE SIZE REDUCTION:3 WORDS
                 SUBOPT_0x1B:
000d54 91e0 0183 	LDS  R30,_t5_G000
000d56 9508      	RET
                 
                 ;OPTIMIZER ADDED SUBROUTINE, CALLED 6 TIMES, CODE SIZE REDUCTION:3 WORDS
                 SUBOPT_0x1C:
000d57 91e0 0184 	LDS  R30,_TminZ_G000
000d59 9508      	RET
                 
                 ;OPTIMIZER ADDED SUBROUTINE, CALLED 6 TIMES, CODE SIZE REDUCTION:3 WORDS
                 SUBOPT_0x1D:
000d5a 91e0 0186 	LDS  R30,_KilkistZapuskiv_G000
000d5c 9508      	RET
                 
                 ;OPTIMIZER ADDED SUBROUTINE, CALLED 6 TIMES, CODE SIZE REDUCTION:8 WORDS
                 SUBOPT_0x1E:
000d5d e0e2      	LDI  R30,LOW(2)
000d5e dfef      	RCALL SUBOPT_0x19
000d5f c750      	RJMP _LCD_Clear
                 
                 ;OPTIMIZER ADDED SUBROUTINE, CALLED 6 TIMES, CODE SIZE REDUCTION:3 WORDS
                 SUBOPT_0x1F:
000d60 91a0 0193 	LDS  R26,_rotor_G000
000d62 9508      	RET
                 
                 ;OPTIMIZER ADDED SUBROUTINE, CALLED 10 TIMES, CODE SIZE REDUCTION:7 WORDS
                 SUBOPT_0x20:
000d63 93e0 0188 	STS  _up_G000,R30
000d65 9508      	RET
                 
                 ;OPTIMIZER ADDED SUBROUTINE, CALLED 3 TIMES, CODE SIZE REDUCTION:2 WORDS
                 SUBOPT_0x21:
000d66 e3ec      	LDI  R30,LOW(60)
000d67 93e0 018c 	STS  _podsvet_G000,R30
000d69 9508      	RET
                 
                 ;OPTIMIZER ADDED SUBROUTINE, CALLED 9 TIMES, CODE SIZE REDUCTION:6 WORDS
                 SUBOPT_0x22:
000d6a 93e0 0189 	STS  _down_G000,R30
000d6c 9508      	RET
                 
                 ;OPTIMIZER ADDED SUBROUTINE, CALLED 2 TIMES, CODE SIZE REDUCTION:1 WORDS
                 SUBOPT_0x23:
000d6d 93e0 018f 	STS  _U1_G000,R30
000d6f 93f0 0190 	STS  _U1_G000+1,R31
000d71 9508      	RET
                 
                 ;OPTIMIZER ADDED SUBROUTINE, CALLED 2 TIMES, CODE SIZE REDUCTION:1 WORDS
                 SUBOPT_0x24:
000d72 93e0 0191 	STS  _T_G000,R30
000d74 93f0 0192 	STS  _T_G000+1,R31
000d76 9508      	RET
                 
                 ;OPTIMIZER ADDED SUBROUTINE, CALLED 3 TIMES, CODE SIZE REDUCTION:4 WORDS
                 SUBOPT_0x25:
000d77 91e0 0191 	LDS  R30,_T_G000
000d79 91f0 0192 	LDS  R31,_T_G000+1
000d7b 9508      	RET
                 
                 ;OPTIMIZER ADDED SUBROUTINE, CALLED 2 TIMES, CODE SIZE REDUCTION:1 WORDS
                 SUBOPT_0x26:
000d7c e0ad      	LDI  R26,LOW(_TO_EEP)
000d7d e0b1      	LDI  R27,HIGH(_TO_EEP)
000d7e d224      	RCALL __EEPROMRDB
000d7f 30e0      	CPI  R30,0
000d80 9508      	RET
                 
                 ;OPTIMIZER ADDED SUBROUTINE, CALLED 4 TIMES, CODE SIZE REDUCTION:10 WORDS
                 SUBOPT_0x27:
000d81 91ed      	LD   R30,X+
000d82 91fd      	LD   R31,X+
000d83 9631      	ADIW R30,1
000d84 93fe      	ST   -X,R31
000d85 93ee      	ST   -X,R30
000d86 9508      	RET
                 
                 ;OPTIMIZER ADDED SUBROUTINE, CALLED 3 TIMES, CODE SIZE REDUCTION:2 WORDS
                 SUBOPT_0x28:
000d87 eda0      	LDI  R26,LOW(2000)
000d88 e0b7      	LDI  R27,HIGH(2000)
000d89 c162      	RJMP _delay_ms
                 
                 ;OPTIMIZER ADDED SUBROUTINE, CALLED 8 TIMES, CODE SIZE REDUCTION:19 WORDS
                 SUBOPT_0x29:
000d8a 93e0 0199 	STS  _temp_G000,R30
000d8c 93f0 019a 	STS  _temp_G000+1,R31
000d8e 9508      	RET
                 
                 ;OPTIMIZER ADDED SUBROUTINE, CALLED 17 TIMES, CODE SIZE REDUCTION:46 WORDS
                 SUBOPT_0x2A:
000d8f 91e0 0199 	LDS  R30,_temp_G000
000d91 91f0 019a 	LDS  R31,_temp_G000+1
000d93 9508      	RET
                 
                 ;OPTIMIZER ADDED SUBROUTINE, CALLED 66 TIMES, CODE SIZE REDUCTION:128 WORDS
                 SUBOPT_0x2B:
000d94 e6e0      	LDI  R30,LOW(_buff_G000)
000d95 e0f1      	LDI  R31,HIGH(_buff_G000)
000d96 cf59      	RJMP SUBOPT_0x2
                 
                 ;OPTIMIZER ADDED SUBROUTINE, CALLED 5 TIMES, CODE SIZE REDUCTION:46 WORDS
                 SUBOPT_0x2C:
000d97 df58      	RCALL SUBOPT_0x2
000d98 dff6      	RCALL SUBOPT_0x2A
000d99 2766      	CLR  R22
000d9a 2777      	CLR  R23
000d9b d1fe      	RCALL __PUTPARD1
000d9c e084      	LDI  R24,4
000d9d df0b      	RCALL _sprintf
000d9e 9628      	ADIW R28,8
000d9f e0a5      	LDI  R26,LOW(5)
000da0 d7cb      	RCALL _ShowBigLine
000da1 eaa0      	LDI  R26,LOW(4000)
000da2 e0bf      	LDI  R27,HIGH(4000)
000da3 c148      	RJMP _delay_ms
                 
                 ;OPTIMIZER ADDED SUBROUTINE, CALLED 8 TIMES, CODE SIZE REDUCTION:40 WORDS
                 SUBOPT_0x2D:
000da4 e9a9      	LDI  R26,LOW(_temp_G000)
000da5 e0b1      	LDI  R27,HIGH(_temp_G000)
000da6 91ed      	LD   R30,X+
000da7 91fd      	LD   R31,X+
000da8 9731      	SBIW R30,1
000da9 93fe      	ST   -X,R31
000daa 93ee      	ST   -X,R30
000dab 9508      	RET
                 
                 ;OPTIMIZER ADDED SUBROUTINE, CALLED 2 TIMES, CODE SIZE REDUCTION:11 WORDS
                 SUBOPT_0x2E:
000dac df43      	RCALL SUBOPT_0x2
000dad 91e0 018f 	LDS  R30,_U1_G000
000daf 91f0 0190 	LDS  R31,_U1_G000+1
000db1 2766      	CLR  R22
000db2 2777      	CLR  R23
000db3 d1e6      	RCALL __PUTPARD1
000db4 e084      	LDI  R24,4
000db5 def3      	RCALL _sprintf
000db6 9628      	ADIW R28,8
000db7 e0a3      	LDI  R26,LOW(3)
000db8 d7b3      	RCALL _ShowBigLine
000db9 cfda      	RJMP SUBOPT_0x2B
                 
                 ;OPTIMIZER ADDED SUBROUTINE, CALLED 2 TIMES, CODE SIZE REDUCTION:3 WORDS
                 SUBOPT_0x2F:
000dba 91a0 018d 	LDS  R26,_U_Bat_G000
000dbc 91b0 018e 	LDS  R27,_U_Bat_G000+1
000dbe e0ea      	LDI  R30,LOW(10)
000dbf e0f0      	LDI  R31,HIGH(10)
000dc0 9508      	RET
                 
                 ;OPTIMIZER ADDED SUBROUTINE, CALLED 3 TIMES, CODE SIZE REDUCTION:4 WORDS
                 SUBOPT_0x30:
000dc1 d181      	RCALL __DIVW21U
000dc2 2766      	CLR  R22
000dc3 2777      	CLR  R23
000dc4 d1d5      	RCALL __PUTPARD1
000dc5 9508      	RET
                 
                 ;OPTIMIZER ADDED SUBROUTINE, CALLED 5 TIMES, CODE SIZE REDUCTION:6 WORDS
                 SUBOPT_0x31:
000dc6 2766      	CLR  R22
000dc7 2777      	CLR  R23
000dc8 d1d1      	RCALL __PUTPARD1
000dc9 9508      	RET
                 
                 ;OPTIMIZER ADDED SUBROUTINE, CALLED 42 TIMES, CODE SIZE REDUCTION:80 WORDS
                 SUBOPT_0x32:
000dca e080      	LDI  R24,0
000dcb dedd      	RCALL _sprintf
000dcc 9624      	ADIW R28,4
000dcd 9508      	RET
                 
                 ;OPTIMIZER ADDED SUBROUTINE, CALLED 2 TIMES, CODE SIZE REDUCTION:4 WORDS
                 SUBOPT_0x33:
000dce e0ab      	LDI  R26,LOW(_NarabotkaEEP)
000dcf e0b1      	LDI  R27,HIGH(_NarabotkaEEP)
000dd0 d1ce      	RCALL __EEPROMRDW
000dd1 01df      	MOVW R26,R30
000dd2 e0e6      	LDI  R30,LOW(6)
000dd3 e0f0      	LDI  R31,HIGH(6)
000dd4 cfec      	RJMP SUBOPT_0x30
                 
                 ;OPTIMIZER ADDED SUBROUTINE, CALLED 4 TIMES, CODE SIZE REDUCTION:7 WORDS
                 SUBOPT_0x34:
000dd5 91a0 0191 	LDS  R26,_T_G000
000dd7 91b0 0192 	LDS  R27,_T_G000+1
000dd9 9508      	RET
                 
                 ;OPTIMIZER ADDED SUBROUTINE, CALLED 10 TIMES, CODE SIZE REDUCTION:16 WORDS
                 SUBOPT_0x35:
000dda e084      	LDI  R24,4
000ddb decd      	RCALL _sprintf
000ddc 9628      	ADIW R28,8
000ddd 9508      	RET
                 
                 ;OPTIMIZER ADDED SUBROUTINE, CALLED 11 TIMES, CODE SIZE REDUCTION:8 WORDS
                 SUBOPT_0x36:
000dde e0a6      	LDI  R26,LOW(6)
000ddf c786      	RJMP _ShowLine
                 
                 ;OPTIMIZER ADDED SUBROUTINE, CALLED 5 TIMES, CODE SIZE REDUCTION:2 WORDS
                 SUBOPT_0x37:
000de0 93e0 0182 	STS  _t4_G000,R30
000de2 9508      	RET
                 
                 ;OPTIMIZER ADDED SUBROUTINE, CALLED 5 TIMES, CODE SIZE REDUCTION:2 WORDS
                 SUBOPT_0x38:
000de3 93e0 0183 	STS  _t5_G000,R30
000de5 9508      	RET
                 
                 ;OPTIMIZER ADDED SUBROUTINE, CALLED 5 TIMES, CODE SIZE REDUCTION:2 WORDS
                 SUBOPT_0x39:
000de6 93e0 0184 	STS  _TminZ_G000,R30
000de8 9508      	RET
                 
                 ;OPTIMIZER ADDED SUBROUTINE, CALLED 38 TIMES, CODE SIZE REDUCTION:35 WORDS
                 SUBOPT_0x3A:
000de9 df06      	RCALL SUBOPT_0x2
000dea cfdf      	RJMP SUBOPT_0x32
                 
                 ;OPTIMIZER ADDED SUBROUTINE, CALLED 12 TIMES, CODE SIZE REDUCTION:9 WORDS
                 SUBOPT_0x3B:
000deb e0a0      	LDI  R26,LOW(0)
000dec c77f      	RJMP _ShowBigLine
                 
                 ;OPTIMIZER ADDED SUBROUTINE, CALLED 4 TIMES, CODE SIZE REDUCTION:10 WORDS
                 SUBOPT_0x3C:
000ded eee8      	LDI  R30,LOW(1000)
000dee e0f3      	LDI  R31,HIGH(1000)
000def df00      	RCALL SUBOPT_0x2
000df0 e0a3      	LDI  R26,LOW(3)
000df1 c6e9      	RJMP _LCD_Blinc
                 
                 ;OPTIMIZER ADDED SUBROUTINE, CALLED 3 TIMES, CODE SIZE REDUCTION:2 WORDS
                 SUBOPT_0x3D:
000df2 e0ab      	LDI  R26,LOW(_NarabotkaEEP)
000df3 e0b1      	LDI  R27,HIGH(_NarabotkaEEP)
000df4 d1aa      	RCALL __EEPROMRDW
000df5 9508      	RET
                 
                 ;OPTIMIZER ADDED SUBROUTINE, CALLED 3 TIMES, CODE SIZE REDUCTION:2 WORDS
                 SUBOPT_0x3E:
000df6 d132      	RCALL __EQW12
000df7 2a0e      	OR   R0,R30
000df8 01fb      	MOVW R30,R22
000df9 9508      	RET
                 
                 ;OPTIMIZER ADDED SUBROUTINE, CALLED 5 TIMES, CODE SIZE REDUCTION:2 WORDS
                 SUBOPT_0x3F:
000dfa e0e2      	LDI  R30,LOW(2)
000dfb cf67      	RJMP SUBOPT_0x20
                 
                 ;OPTIMIZER ADDED SUBROUTINE, CALLED 15 TIMES, CODE SIZE REDUCTION:40 WORDS
                 SUBOPT_0x40:
000dfc 91a0 018f 	LDS  R26,_U1_G000
000dfe 91b0 0190 	LDS  R27,_U1_G000+1
000e00 9508      	RET
                 
                 ;OPTIMIZER ADDED SUBROUTINE, CALLED 5 TIMES, CODE SIZE REDUCTION:10 WORDS
                 SUBOPT_0x41:
000e01 dffa      	RCALL SUBOPT_0x40
000e02 30aa      	CPI  R26,LOW(0x10A)
000e03 e0e1      	LDI  R30,HIGH(0x10A)
000e04 07be      	CPC  R27,R30
000e05 9508      	RET
                 
                 ;OPTIMIZER ADDED SUBROUTINE, CALLED 6 TIMES, CODE SIZE REDUCTION:3 WORDS
                 SUBOPT_0x42:
000e06 e0f0      	LDI  R31,0
000e07 cf82      	RJMP SUBOPT_0x29
                 
                 ;OPTIMIZER ADDED SUBROUTINE, CALLED 7 TIMES, CODE SIZE REDUCTION:4 WORDS
                 SUBOPT_0x43:
000e08 df86      	RCALL SUBOPT_0x2A
000e09 9730      	SBIW R30,0
000e0a 9508      	RET
                 
                 ;OPTIMIZER ADDED SUBROUTINE, CALLED 15 TIMES, CODE SIZE REDUCTION:26 WORDS
                 SUBOPT_0x44:
000e0b e0a3      	LDI  R26,LOW(3)
000e0c d75f      	RCALL _ShowBigLine
000e0d cf86      	RJMP SUBOPT_0x2B
                 
                 ;OPTIMIZER ADDED SUBROUTINE, CALLED 4 TIMES, CODE SIZE REDUCTION:4 WORDS
                 SUBOPT_0x45:
                +
000e0e e7e4     +LDI R30 , LOW ( 2 * _0x0 + ( 226 ) )
000e0f e0f5     +LDI R31 , HIGH ( 2 * _0x0 + ( 226 ) )
                 	__POINTW1FN _0x0,226
000e10 cf86      	RJMP SUBOPT_0x2C
                 
                 ;OPTIMIZER ADDED SUBROUTINE, CALLED 2 TIMES, CODE SIZE REDUCTION:2 WORDS
                 SUBOPT_0x46:
000e11 e2ea      	LDI  R30,LOW(42)
000e12 df1a      	RCALL SUBOPT_0x10
000e13 d8df      	RCALL _Klapan_off
000e14 9a93      	SBI  0x12,3
000e15 c69a      	RJMP _LCD_Clear
                 
                 ;OPTIMIZER ADDED SUBROUTINE, CALLED 5 TIMES, CODE SIZE REDUCTION:14 WORDS
                 SUBOPT_0x47:
000e16 27ff      	CLR  R31
000e17 2766      	CLR  R22
000e18 2777      	CLR  R23
000e19 d180      	RCALL __PUTPARD1
000e1a cfbf      	RJMP SUBOPT_0x35
                 
                 ;OPTIMIZER ADDED SUBROUTINE, CALLED 6 TIMES, CODE SIZE REDUCTION:38 WORDS
                 SUBOPT_0x48:
000e1b dee7      	RCALL SUBOPT_0x7
000e1c e0ea      	LDI  R30,LOW(10)
000e1d d106      	RCALL __GTB12U
000e1e 2a0e      	OR   R0,R30
000e1f e0a0      	LDI  R26,0
000e20 fc23      	SBRC R2,3
000e21 e0a1      	LDI  R26,1
000e22 e0e1      	LDI  R30,LOW(1)
000e23 cf12      	RJMP SUBOPT_0x12
                 
                 ;OPTIMIZER ADDED SUBROUTINE, CALLED 6 TIMES, CODE SIZE REDUCTION:38 WORDS
                 SUBOPT_0x49:
000e24 def4      	RCALL SUBOPT_0xC
000e25 e0ea      	LDI  R30,LOW(10)
000e26 d0fd      	RCALL __GTB12U
000e27 2a0e      	OR   R0,R30
000e28 e0a0      	LDI  R26,0
000e29 fc23      	SBRC R2,3
000e2a e0a1      	LDI  R26,1
000e2b e0e1      	LDI  R30,LOW(1)
000e2c cf09      	RJMP SUBOPT_0x12
                 
                 ;OPTIMIZER ADDED SUBROUTINE, CALLED 4 TIMES, CODE SIZE REDUCTION:1 WORDS
                 SUBOPT_0x4A:
000e2d e0e2      	LDI  R30,LOW(2)
000e2e cf3b      	RJMP SUBOPT_0x22
                 
                 ;OPTIMIZER ADDED SUBROUTINE, CALLED 5 TIMES, CODE SIZE REDUCTION:2 WORDS
                 SUBOPT_0x4B:
000e2f 93e0 0186 	STS  _KilkistZapuskiv_G000,R30
000e31 9508      	RET
                 
                 ;OPTIMIZER ADDED SUBROUTINE, CALLED 5 TIMES, CODE SIZE REDUCTION:2 WORDS
                 SUBOPT_0x4C:
000e32 91a0 0186 	LDS  R26,_KilkistZapuskiv_G000
000e34 9508      	RET
                 
                 ;OPTIMIZER ADDED SUBROUTINE, CALLED 4 TIMES, CODE SIZE REDUCTION:1 WORDS
                 SUBOPT_0x4D:
000e35 dffc      	RCALL SUBOPT_0x4C
000e36 30a1      	CPI  R26,LOW(0x1)
000e37 9508      	RET
                 
                 ;OPTIMIZER ADDED SUBROUTINE, CALLED 13 TIMES, CODE SIZE REDUCTION:22 WORDS
                 SUBOPT_0x4E:
000e38 eaa0      	LDI  R26,LOW(4000)
000e39 e0bf      	LDI  R27,HIGH(4000)
000e3a c0b1      	RJMP _delay_ms
                 
                 ;OPTIMIZER ADDED SUBROUTINE, CALLED 9 TIMES, CODE SIZE REDUCTION:6 WORDS
                 SUBOPT_0x4F:
000e3b e0a3      	LDI  R26,LOW(3)
000e3c c72f      	RJMP _ShowBigLine
                 
                 ;OPTIMIZER ADDED SUBROUTINE, CALLED 2 TIMES, CODE SIZE REDUCTION:2 WORDS
                 SUBOPT_0x50:
000e3d df19      	RCALL SUBOPT_0x1C
000e3e df96      	RCALL SUBOPT_0x34
000e3f e0f0      	LDI  R31,0
000e40 17ae      	CP   R26,R30
000e41 07bf      	CPC  R27,R31
000e42 9508      	RET
                 
                 ;OPTIMIZER ADDED SUBROUTINE, CALLED 4 TIMES, CODE SIZE REDUCTION:4 WORDS
                 SUBOPT_0x51:
000e43 deac      	RCALL SUBOPT_0x2
000e44 df4a      	RCALL SUBOPT_0x2A
000e45 cf80      	RJMP SUBOPT_0x31
                 
                 ;OPTIMIZER ADDED SUBROUTINE, CALLED 2 TIMES, CODE SIZE REDUCTION:1 WORDS
                 SUBOPT_0x52:
000e46 9894      	CBI  0x12,4
000e47 e2e9      	LDI  R30,LOW(41)
000e48 dee4      	RCALL SUBOPT_0x10
000e49 c8a9      	RJMP _Klapan_off
                 
                 ;OPTIMIZER ADDED SUBROUTINE, CALLED 3 TIMES, CODE SIZE REDUCTION:2 WORDS
                 SUBOPT_0x53:
000e4a 91e0 0187 	LDS  R30,_AvtRu_G000
000e4c 30e0      	CPI  R30,0
000e4d 9508      	RET
                 
                 ;OPTIMIZER ADDED SUBROUTINE, CALLED 2 TIMES, CODE SIZE REDUCTION:1 WORDS
                 SUBOPT_0x54:
000e4e dfad      	RCALL SUBOPT_0x40
000e4f 3faf      	CPI  R26,LOW(0xFF)
000e50 e0e0      	LDI  R30,HIGH(0xFF)
000e51 07be      	CPC  R27,R30
000e52 9508      	RET
                 
                 ;OPTIMIZER ADDED SUBROUTINE, CALLED 4 TIMES, CODE SIZE REDUCTION:1 WORDS
                 SUBOPT_0x55:
000e53 93ba      	ST   -Y,R27
000e54 93aa      	ST   -Y,R26
000e55 9508      	RET
                 
                 ;OPTIMIZER ADDED SUBROUTINE, CALLED 6 TIMES, CODE SIZE REDUCTION:3 WORDS
                 SUBOPT_0x56:
000e56 81aa      	LDD  R26,Y+2
000e57 81bb      	LDD  R27,Y+2+1
000e58 9508      	RET
                 
                 ;OPTIMIZER ADDED SUBROUTINE, CALLED 5 TIMES, CODE SIZE REDUCTION:2 WORDS
                 SUBOPT_0x57:
000e59 9614      	ADIW R26,4
000e5a d135      	RCALL __GETW1P
000e5b 9508      	RET
                 
                 ;OPTIMIZER ADDED SUBROUTINE, CALLED 5 TIMES, CODE SIZE REDUCTION:18 WORDS
                 SUBOPT_0x58:
000e5c 932a      	ST   -Y,R18
000e5d 89ab      	LDD  R26,Y+19
000e5e 89bc      	LDD  R27,Y+19+1
000e5f 89ed      	LDD  R30,Y+21
000e60 89fe      	LDD  R31,Y+21+1
000e61 9509      	ICALL
000e62 9508      	RET
                 
                 ;OPTIMIZER ADDED SUBROUTINE, CALLED 7 TIMES, CODE SIZE REDUCTION:4 WORDS
                 SUBOPT_0x59:
000e63 89ee      	LDD  R30,Y+22
000e64 89ff      	LDD  R31,Y+22+1
000e65 9508      	RET
                 
                 ;OPTIMIZER ADDED SUBROUTINE, CALLED 6 TIMES, CODE SIZE REDUCTION:8 WORDS
                 SUBOPT_0x5A:
000e66 9734      	SBIW R30,4
000e67 8bee      	STD  Y+22,R30
000e68 8bff      	STD  Y+22+1,R31
000e69 9508      	RET
                 
                 ;OPTIMIZER ADDED SUBROUTINE, CALLED 5 TIMES, CODE SIZE REDUCTION:14 WORDS
                 SUBOPT_0x5B:
000e6a 89ab      	LDD  R26,Y+19
000e6b 89bc      	LDD  R27,Y+19+1
000e6c 89ed      	LDD  R30,Y+21
000e6d 89fe      	LDD  R31,Y+21+1
000e6e 9509      	ICALL
000e6f 9508      	RET
                 
                 ;OPTIMIZER ADDED SUBROUTINE, CALLED 5 TIMES, CODE SIZE REDUCTION:2 WORDS
                 SUBOPT_0x5C:
000e70 dff2      	RCALL SUBOPT_0x59
000e71 cff4      	RJMP SUBOPT_0x5A
                 
                 ;OPTIMIZER ADDED SUBROUTINE, CALLED 4 TIMES, CODE SIZE REDUCTION:4 WORDS
                 SUBOPT_0x5D:
000e72 89ae      	LDD  R26,Y+22
000e73 89bf      	LDD  R27,Y+22+1
000e74 cfe4      	RJMP SUBOPT_0x57
                 
                 ;OPTIMIZER ADDED SUBROUTINE, CALLED 2 TIMES, CODE SIZE REDUCTION:1 WORDS
                 SUBOPT_0x5E:
000e75 83ee      	STD  Y+6,R30
000e76 83ff      	STD  Y+6+1,R31
000e77 81ae      	LDD  R26,Y+6
000e78 81bf      	LDD  R27,Y+6+1
000e79 9508      	RET
                 
                 ;OPTIMIZER ADDED SUBROUTINE, CALLED 5 TIMES, CODE SIZE REDUCTION:10 WORDS
                 SUBOPT_0x5F:
                +
000e7a 87e8     +STD Y + 8 , R30
000e7b 87f9     +STD Y + 8 + 1 , R31
000e7c 876a     +STD Y + 8 + 2 , R22
000e7d 877b     +STD Y + 8 + 3 , R23
                 	__PUTD1S 8
000e7e 9508      	RET
                 
                 ;OPTIMIZER ADDED SUBROUTINE, CALLED 2 TIMES, CODE SIZE REDUCTION:1 WORDS
                 SUBOPT_0x60:
                +
000e7f 87ec     +STD Y + 12 , R30
000e80 87fd     +STD Y + 12 + 1 , R31
000e81 876e     +STD Y + 12 + 2 , R22
000e82 877f     +STD Y + 12 + 3 , R23
                 	__PUTD1S 12
000e83 9508      	RET
                 
                 ;OPTIMIZER ADDED SUBROUTINE, CALLED 2 TIMES, CODE SIZE REDUCTION:1 WORDS
                 SUBOPT_0x61:
000e84 7f0b      	ANDI R16,LOW(251)
000e85 89e9      	LDD  R30,Y+17
000e86 93ea      	ST   -Y,R30
000e87 cfe2      	RJMP SUBOPT_0x5B
                 
                 ;OPTIMIZER ADDED SUBROUTINE, CALLED 2 TIMES, CODE SIZE REDUCTION:5 WORDS
                 SUBOPT_0x62:
                +
000e88 85e8     +LDD R30 , Y + 8
000e89 85f9     +LDD R31 , Y + 8 + 1
000e8a 856a     +LDD R22 , Y + 8 + 2
000e8b 857b     +LDD R23 , Y + 8 + 3
                 	__GETD1S 8
                +
000e8c 85ac     +LDD R26 , Y + 12
000e8d 85bd     +LDD R27 , Y + 12 + 1
000e8e 858e     +LDD R24 , Y + 12 + 2
000e8f 859f     +LDD R25 , Y + 12 + 3
                 	__GETD2S 12
000e90 9508      	RET
                 
                 ;OPTIMIZER ADDED SUBROUTINE, CALLED 2 TIMES, CODE SIZE REDUCTION:1 WORDS
                 SUBOPT_0x63:
                +
000e91 85a8     +LDD R26 , Y + 8
000e92 85b9     +LDD R27 , Y + 8 + 1
000e93 858a     +LDD R24 , Y + 8 + 2
000e94 859b     +LDD R25 , Y + 8 + 3
                 	__GETD2S 8
000e95 9508      	RET
                 
                 ;OPTIMIZER ADDED SUBROUTINE, CALLED 2 TIMES, CODE SIZE REDUCTION:1 WORDS
                 SUBOPT_0x64:
000e96 01de      	MOVW R26,R28
000e97 961c      	ADIW R26,12
000e98 d05d      	RCALL __ADDW2R15
000e99 d0f6      	RCALL __GETW1P
000e9a 9508      	RET
                 
                 
                 	.CSEG
                 	.equ __sda_bit=1
                 	.equ __scl_bit=5
                 	.equ __i2c_port=0x18 ;PORTB
                 	.equ __i2c_dir=__i2c_port-1
                 	.equ __i2c_pin=__i2c_port-2
                 
                 _i2c_init:
000e9b 98c5      	cbi  __i2c_port,__scl_bit
000e9c 98c1      	cbi  __i2c_port,__sda_bit
000e9d 9abd      	sbi  __i2c_dir,__scl_bit
000e9e 98b9      	cbi  __i2c_dir,__sda_bit
000e9f c015      	rjmp __i2c_delay2
                 _i2c_start:
000ea0 98b9      	cbi  __i2c_dir,__sda_bit
000ea1 98bd      	cbi  __i2c_dir,__scl_bit
000ea2 27ee      	clr  r30
000ea3 0000      	nop
000ea4 9bb1      	sbis __i2c_pin,__sda_bit
000ea5 9508      	ret
000ea6 9bb5      	sbis __i2c_pin,__scl_bit
000ea7 9508      	ret
000ea8 d004      	rcall __i2c_delay1
000ea9 9ab9      	sbi  __i2c_dir,__sda_bit
000eaa d002      	rcall __i2c_delay1
000eab 9abd      	sbi  __i2c_dir,__scl_bit
000eac e0e1      	ldi  r30,1
                 __i2c_delay1:
000ead e063      	ldi  r22,3
000eae c007      	rjmp __i2c_delay2l
                 _i2c_stop:
000eaf 9ab9      	sbi  __i2c_dir,__sda_bit
000eb0 9abd      	sbi  __i2c_dir,__scl_bit
000eb1 d003      	rcall __i2c_delay2
000eb2 98bd      	cbi  __i2c_dir,__scl_bit
000eb3 dff9      	rcall __i2c_delay1
000eb4 98b9      	cbi  __i2c_dir,__sda_bit
                 __i2c_delay2:
000eb5 e067      	ldi  r22,7
                 __i2c_delay2l:
000eb6 956a      	dec  r22
000eb7 f7f1      	brne __i2c_delay2l
000eb8 9508      	ret
                 _i2c_read:
000eb9 e078      	ldi  r23,8
                 __i2c_read0:
000eba 98bd      	cbi  __i2c_dir,__scl_bit
000ebb dff1      	rcall __i2c_delay1
                 __i2c_read3:
000ebc 9bb5      	sbis __i2c_pin,__scl_bit
000ebd cffe      	rjmp __i2c_read3
000ebe dfee      	rcall __i2c_delay1
000ebf 9488      	clc
000ec0 99b1      	sbic __i2c_pin,__sda_bit
000ec1 9408      	sec
000ec2 9abd      	sbi  __i2c_dir,__scl_bit
000ec3 dff1      	rcall __i2c_delay2
000ec4 1fee      	rol  r30
000ec5 957a      	dec  r23
000ec6 f799      	brne __i2c_read0
000ec7 2f7a      	mov  r23,r26
000ec8 2377      	tst  r23
000ec9 f411      	brne __i2c_read1
000eca 98b9      	cbi  __i2c_dir,__sda_bit
000ecb c001      	rjmp __i2c_read2
                 __i2c_read1:
000ecc 9ab9      	sbi  __i2c_dir,__sda_bit
                 __i2c_read2:
000ecd dfdf      	rcall __i2c_delay1
000ece 98bd      	cbi  __i2c_dir,__scl_bit
000ecf dfe5      	rcall __i2c_delay2
000ed0 9abd      	sbi  __i2c_dir,__scl_bit
000ed1 dfdb      	rcall __i2c_delay1
000ed2 98b9      	cbi  __i2c_dir,__sda_bit
000ed3 cfd9      	rjmp __i2c_delay1
                 
                 _i2c_write:
000ed4 e078      	ldi  r23,8
                 __i2c_write0:
000ed5 0faa      	lsl  r26
000ed6 f410      	brcc __i2c_write1
000ed7 98b9      	cbi  __i2c_dir,__sda_bit
000ed8 c001      	rjmp __i2c_write2
                 __i2c_write1:
000ed9 9ab9      	sbi  __i2c_dir,__sda_bit
                 __i2c_write2:
000eda dfda      	rcall __i2c_delay2
000edb 98bd      	cbi  __i2c_dir,__scl_bit
000edc dfd0      	rcall __i2c_delay1
                 __i2c_write3:
000edd 9bb5      	sbis __i2c_pin,__scl_bit
000ede cffe      	rjmp __i2c_write3
000edf dfcd      	rcall __i2c_delay1
000ee0 9abd      	sbi  __i2c_dir,__scl_bit
000ee1 957a      	dec  r23
000ee2 f791      	brne __i2c_write0
000ee3 98b9      	cbi  __i2c_dir,__sda_bit
000ee4 dfc8      	rcall __i2c_delay1
000ee5 98bd      	cbi  __i2c_dir,__scl_bit
000ee6 dfce      	rcall __i2c_delay2
000ee7 e0e1      	ldi  r30,1
000ee8 99b1      	sbic __i2c_pin,__sda_bit
000ee9 27ee      	clr  r30
000eea 9abd      	sbi  __i2c_dir,__scl_bit
000eeb cfc1      	rjmp __i2c_delay1
                 
                 _delay_ms:
000eec 9610      	adiw r26,0
000eed f039      	breq __delay_ms1
                 __delay_ms0:
                +
000eee ef84     +LDI R24 , LOW ( 0x1F4 )
000eef e091     +LDI R25 , HIGH ( 0x1F4 )
                +__DELAY_USW_LOOP :
000ef0 9701     +SBIW R24 , 1
000ef1 f7f1     +BRNE __DELAY_USW_LOOP
                 	__DELAY_USW 0x1F4
000ef2 95a8      	wdr
000ef3 9711      	sbiw r26,1
000ef4 f7c9      	brne __delay_ms0
                 __delay_ms1:
000ef5 9508      	ret
                 
                 __ADDW2R15:
000ef6 2400      	CLR  R0
000ef7 0daf      	ADD  R26,R15
000ef8 1db0      	ADC  R27,R0
000ef9 9508      	RET
                 
                 __ANEGW1:
000efa 95f1      	NEG  R31
000efb 95e1      	NEG  R30
000efc 40f0      	SBCI R31,0
000efd 9508      	RET
                 
                 __ANEGD1:
000efe 95f0      	COM  R31
000eff 9560      	COM  R22
000f00 9570      	COM  R23
000f01 95e1      	NEG  R30
000f02 4fff      	SBCI R31,-1
000f03 4f6f      	SBCI R22,-1
000f04 4f7f      	SBCI R23,-1
000f05 9508      	RET
                 
                 __LSRW2:
000f06 95f6      	LSR  R31
000f07 95e7      	ROR  R30
000f08 95f6      	LSR  R31
000f09 95e7      	ROR  R30
000f0a 9508      	RET
                 
                 __CWD1:
000f0b 2f6f      	MOV  R22,R31
000f0c 0f66      	ADD  R22,R22
000f0d 0b66      	SBC  R22,R22
000f0e 2f76      	MOV  R23,R22
000f0f 9508      	RET
                 
                 __EQB12:
000f10 17ea      	CP   R30,R26
000f11 e0e1      	LDI  R30,1
000f12 f009      	BREQ __EQB12T
000f13 27ee      	CLR  R30
                 __EQB12T:
000f14 9508      	RET
                 
                 __NEB12:
000f15 17ea      	CP   R30,R26
000f16 e0e1      	LDI  R30,1
000f17 f409      	BRNE __NEB12T
000f18 27ee      	CLR  R30
                 __NEB12T:
000f19 9508      	RET
                 
                 __LEB12U:
000f1a 17ea      	CP   R30,R26
000f1b e0e1      	LDI  R30,1
000f1c f408      	BRSH __LEB12U1
000f1d 27ee      	CLR  R30
                 __LEB12U1:
000f1e 9508      	RET
                 
                 __GEB12U:
000f1f 17ae      	CP   R26,R30
000f20 e0e1      	LDI  R30,1
000f21 f408      	BRSH __GEB12U1
000f22 27ee      	CLR  R30
                 __GEB12U1:
000f23 9508      	RET
                 
                 __GTB12U:
000f24 17ea      	CP   R30,R26
000f25 e0e1      	LDI  R30,1
000f26 f008      	BRLO __GTB12U1
000f27 27ee      	CLR  R30
                 __GTB12U1:
000f28 9508      	RET
                 
                 __EQW12:
000f29 17ea      	CP   R30,R26
000f2a 07fb      	CPC  R31,R27
000f2b e0e1      	LDI  R30,1
000f2c f009      	BREQ __EQW12T
000f2d 27ee      	CLR  R30
                 __EQW12T:
000f2e 9508      	RET
                 
                 __LTW12U:
000f2f 17ae      	CP   R26,R30
000f30 07bf      	CPC  R27,R31
000f31 e0e1      	LDI  R30,1
000f32 f008      	BRLO __LTW12UT
000f33 27ee      	CLR  R30
                 __LTW12UT:
000f34 9508      	RET
                 
                 __MULW12U:
000f35 9ffa      	MUL  R31,R26
000f36 2df0      	MOV  R31,R0
000f37 9feb      	MUL  R30,R27
000f38 0df0      	ADD  R31,R0
000f39 9fea      	MUL  R30,R26
000f3a 2de0      	MOV  R30,R0
000f3b 0df1      	ADD  R31,R1
000f3c 9508      	RET
                 
                 __MULB1W2U:
000f3d 2f6e      	MOV  R22,R30
000f3e 9f6a      	MUL  R22,R26
000f3f 01f0      	MOVW R30,R0
000f40 9f6b      	MUL  R22,R27
000f41 0df0      	ADD  R31,R0
000f42 9508      	RET
                 
                 __DIVW21U:
000f43 2400      	CLR  R0
000f44 2411      	CLR  R1
000f45 e190      	LDI  R25,16
                 __DIVW21U1:
000f46 0faa      	LSL  R26
000f47 1fbb      	ROL  R27
000f48 1c00      	ROL  R0
000f49 1c11      	ROL  R1
000f4a 1a0e      	SUB  R0,R30
000f4b 0a1f      	SBC  R1,R31
000f4c f418      	BRCC __DIVW21U2
000f4d 0e0e      	ADD  R0,R30
000f4e 1e1f      	ADC  R1,R31
000f4f c001      	RJMP __DIVW21U3
                 __DIVW21U2:
000f50 60a1      	SBR  R26,1
                 __DIVW21U3:
000f51 959a      	DEC  R25
000f52 f799      	BRNE __DIVW21U1
000f53 01fd      	MOVW R30,R26
000f54 01d0      	MOVW R26,R0
000f55 9508      	RET
                 
                 __DIVD21U:
000f56 933f      	PUSH R19
000f57 934f      	PUSH R20
000f58 935f      	PUSH R21
000f59 2400      	CLR  R0
000f5a 2411      	CLR  R1
000f5b 2744      	CLR  R20
000f5c 2755      	CLR  R21
000f5d e230      	LDI  R19,32
                 __DIVD21U1:
000f5e 0faa      	LSL  R26
000f5f 1fbb      	ROL  R27
000f60 1f88      	ROL  R24
000f61 1f99      	ROL  R25
000f62 1c00      	ROL  R0
000f63 1c11      	ROL  R1
000f64 1f44      	ROL  R20
000f65 1f55      	ROL  R21
000f66 1a0e      	SUB  R0,R30
000f67 0a1f      	SBC  R1,R31
000f68 0b46      	SBC  R20,R22
000f69 0b57      	SBC  R21,R23
000f6a f428      	BRCC __DIVD21U2
000f6b 0e0e      	ADD  R0,R30
000f6c 1e1f      	ADC  R1,R31
000f6d 1f46      	ADC  R20,R22
000f6e 1f57      	ADC  R21,R23
000f6f c001      	RJMP __DIVD21U3
                 __DIVD21U2:
000f70 60a1      	SBR  R26,1
                 __DIVD21U3:
000f71 953a      	DEC  R19
000f72 f759      	BRNE __DIVD21U1
000f73 01fd      	MOVW R30,R26
000f74 01bc      	MOVW R22,R24
000f75 01d0      	MOVW R26,R0
000f76 01ca      	MOVW R24,R20
000f77 915f      	POP  R21
000f78 914f      	POP  R20
000f79 913f      	POP  R19
000f7a 9508      	RET
                 
                 __MODW21U:
000f7b dfc7      	RCALL __DIVW21U
000f7c 01fd      	MOVW R30,R26
000f7d 9508      	RET
                 
                 __MODW21:
000f7e 94e8      	CLT
000f7f ffb7      	SBRS R27,7
000f80 c004      	RJMP __MODW211
000f81 95a0      	COM  R26
000f82 95b0      	COM  R27
000f83 9611      	ADIW R26,1
000f84 9468      	SET
                 __MODW211:
000f85 fdf7      	SBRC R31,7
000f86 df73      	RCALL __ANEGW1
000f87 dfbb      	RCALL __DIVW21U
000f88 01fd      	MOVW R30,R26
000f89 f40e      	BRTC __MODW212
000f8a df6f      	RCALL __ANEGW1
                 __MODW212:
000f8b 9508      	RET
                 
                 __MODD21U:
000f8c dfc9      	RCALL __DIVD21U
000f8d 01fd      	MOVW R30,R26
000f8e 01bc      	MOVW R22,R24
000f8f 9508      	RET
                 
                 __GETW1P:
000f90 91ed      	LD   R30,X+
000f91 91fc      	LD   R31,X
000f92 9711      	SBIW R26,1
000f93 9508      	RET
                 
                 __GETD1P:
000f94 91ed      	LD   R30,X+
000f95 91fd      	LD   R31,X+
000f96 916d      	LD   R22,X+
000f97 917c      	LD   R23,X
000f98 9713      	SBIW R26,3
000f99 9508      	RET
                 
                 __PUTPARD1:
000f9a 937a      	ST   -Y,R23
000f9b 936a      	ST   -Y,R22
000f9c 93fa      	ST   -Y,R31
000f9d 93ea      	ST   -Y,R30
000f9e 9508      	RET
                 
                 __EEPROMRDW:
000f9f 9611      	ADIW R26,1
000fa0 d002      	RCALL __EEPROMRDB
000fa1 2ffe      	MOV  R31,R30
000fa2 9711      	SBIW R26,1
                 
                 __EEPROMRDB:
000fa3 99e1      	SBIC EECR,EEWE
000fa4 cffe      	RJMP __EEPROMRDB
000fa5 93ff      	PUSH R31
000fa6 b7ff      	IN   R31,SREG
000fa7 94f8      	CLI
000fa8 bbae      	OUT  EEARL,R26
000fa9 bbbf      	OUT  EEARH,R27
000faa 9ae0      	SBI  EECR,EERE
000fab b3ed      	IN   R30,EEDR
000fac bfff      	OUT  SREG,R31
000fad 91ff      	POP  R31
000fae 9508      	RET
                 
                 __EEPROMWRW:
000faf d007      	RCALL __EEPROMWRB
000fb0 9611      	ADIW R26,1
000fb1 93ef      	PUSH R30
000fb2 2fef      	MOV  R30,R31
000fb3 d003      	RCALL __EEPROMWRB
000fb4 91ef      	POP  R30
000fb5 9711      	SBIW R26,1
000fb6 9508      	RET
                 
                 __EEPROMWRB:
000fb7 9be1      	SBIS EECR,EEWE
000fb8 c002      	RJMP __EEPROMWRB1
000fb9 95a8      	WDR
000fba cffc      	RJMP __EEPROMWRB
                 __EEPROMWRB1:
000fbb b79f      	IN   R25,SREG
000fbc 94f8      	CLI
000fbd bbae      	OUT  EEARL,R26
000fbe bbbf      	OUT  EEARH,R27
000fbf 9ae0      	SBI  EECR,EERE
000fc0 b38d      	IN   R24,EEDR
000fc1 17e8      	CP   R30,R24
000fc2 f019      	BREQ __EEPROMWRB0
000fc3 bbed      	OUT  EEDR,R30
000fc4 9ae2      	SBI  EECR,EEMWE
000fc5 9ae1      	SBI  EECR,EEWE
                 __EEPROMWRB0:
000fc6 bf9f      	OUT  SREG,R25
000fc7 9508      	RET
                 
                 __CPD10:
000fc8 9730      	SBIW R30,0
000fc9 4060      	SBCI R22,0
000fca 4070      	SBCI R23,0
000fcb 9508      	RET
                 
                 __BSTB1:
000fcc 94e8      	CLT
000fcd 23ee      	TST  R30
000fce f009      	BREQ PC+2
000fcf 9468      	SET
000fd0 9508      	RET
                 
                 __SAVELOCR6:
000fd1 935a      	ST   -Y,R21
                 __SAVELOCR5:
000fd2 934a      	ST   -Y,R20
                 __SAVELOCR4:
000fd3 933a      	ST   -Y,R19
                 __SAVELOCR3:
000fd4 932a      	ST   -Y,R18
                 __SAVELOCR2:
000fd5 931a      	ST   -Y,R17
000fd6 930a      	ST   -Y,R16
000fd7 9508      	RET
                 
                 __LOADLOCR6:
000fd8 815d      	LDD  R21,Y+5
                 __LOADLOCR5:
000fd9 814c      	LDD  R20,Y+4
                 __LOADLOCR4:
000fda 813b      	LDD  R19,Y+3
                 __LOADLOCR3:
000fdb 812a      	LDD  R18,Y+2
                 __LOADLOCR2:
000fdc 8119      	LDD  R17,Y+1
000fdd 8108      	LD   R16,Y
000fde 9508      	RET
                 
                 ;END OF CODE MARKER
                 __END_OF_CODE:


RESOURCE USE INFORMATION
------------------------

Notice:
The register and instruction counts are symbol table hit counts,
and hence implicitly used resources are not counted, eg, the
'lpm' instruction without operands implicitly uses r0 and z,
none of which are counted.

x,y,z are separate entities in the symbol table and are
counted separately from r26..r31 here.

.dseg memory usage only counts static data declared with .byte

ATmega8 register use summary:
r0 :  44 r1 :  12 r2 :  16 r3 :   0 r4 :   2 r5 :   4 r6 :   3 r7 :   2 
r8 :   3 r9 :   2 r10:   3 r11:   2 r12:   0 r13:   0 r14:   0 r15:   6 
r16:  55 r17:  40 r18:  49 r19:  21 r20:  28 r21:  30 r22:  47 r23:  33 
r24:  29 r25:  13 r26: 340 r27: 100 r28:  22 r29:   1 r30: 606 r31: 191 
x  :  28 y  : 198 z  :  13 
Registers used: 31 out of 35 (88.6%)

ATmega8 instruction use summary:
.lds  :   0 .lds.l:   0 .sts  :   0 .sts.l:   0 adc   :   9 add   :  14 
adiw  :  34 and   :   5 andi  :  15 asr   :   0 bclr  :   0 bld   :   3 
brbc  :   0 brbs  :   0 brcc  :   3 brcs  :   0 break :   0 breq  :  64 
brge  :   4 brhc  :   0 brhs  :   0 brid  :   0 brie  :   0 brlo  :  49 
brlt  :   0 brmi  :   1 brne  :  71 brpl  :   2 brsh  :  19 brtc  :   1 
brts  :   0 brvc  :   0 brvs  :   0 bset  :   0 bst   :   0 cbi   :  33 
cbr   :   0 clc   :   1 clh   :   0 cli   :  14 cln   :   0 clr   :  41 
cls   :   0 clt   :   3 clv   :   0 clz   :   0 com   :   5 cp    :  18 
cpc   :  37 cpi   : 121 cpse  :   0 dec   :   7 des   :   0 eor   :   1 
fmul  :   0 fmuls :   0 fmulsu:   0 icall :   2 ijmp  :   0 in    :   7 
inc   :   0 ld    :  37 ldd   :  87 ldi   : 555 lds   :  56 lpm   :  13 
lsl   :   3 lsr   :   5 mov   :  36 movw  :  43 mul   :   7 muls  :   0 
mulsu :   0 neg   :   3 nop   :   1 or    :   6 ori   :   9 out   :  30 
pop   :   6 push  :   6 rcall : 759 ret   : 118 reti  :   1 rjmp  : 220 
rol   :  11 ror   :   5 sbc   :   5 sbci  :  11 sbi   :  27 sbic  :   7 
sbis  :   8 sbiw  :  26 sbr   :   2 sbrc  :  14 sbrs  :  16 sec   :   1 
seh   :   0 sei   :  12 sen   :   0 ser   :   0 ses   :   0 set   :   3 
sev   :   0 sez   :   0 sleep :   0 spm   :   0 st    :  68 std   :  36 
sts   :  45 sub   :   2 subi  :  55 swap  :   1 tst   :   7 wdr   :   2 

Instructions used: 71 out of 114 (62.3%)

ATmega8 memory use summary [bytes]:
Segment   Begin    End      Code   Data   Used    Size   Use%
---------------------------------------------------------------
[.cseg] 0x000000 0x001fbe   6096   2030   8126    8192  99.2%
[.dseg] 0x000060 0x00019b      0     59     59    1024   5.8%
[.eseg] 0x000000 0x00010e      0    270    270     512  52.7%

Assembly complete, 0 errors, 11 warnings
